
Dynamics-CD.elf:     file format elf32-littlearm

Sections:
Idx Name          Size      VMA       LMA       File off  Algn
  0 .isr_vector   000001d8  08000000  08000000  00010000  2**0
                  CONTENTS, ALLOC, LOAD, READONLY, DATA
  1 .text         00002ca8  080001e0  080001e0  000101e0  2**4
                  CONTENTS, ALLOC, LOAD, READONLY, CODE
  2 .rodata       000000ac  08002e88  08002e88  00012e88  2**2
                  CONTENTS, ALLOC, LOAD, READONLY, DATA
  3 .ARM.extab    00000000  08002f34  08002f34  00020070  2**0
                  CONTENTS
  4 .ARM          00000000  08002f34  08002f34  00020070  2**0
                  CONTENTS
  5 .preinit_array 00000000  08002f34  08002f34  00020070  2**0
                  CONTENTS, ALLOC, LOAD, DATA
  6 .init_array   00000004  08002f34  08002f34  00012f34  2**2
                  CONTENTS, ALLOC, LOAD, DATA
  7 .fini_array   00000004  08002f38  08002f38  00012f38  2**2
                  CONTENTS, ALLOC, LOAD, DATA
  8 .data         00000070  20000000  08002f3c  00020000  2**2
                  CONTENTS, ALLOC, LOAD, DATA
  9 .bss          000003d8  20000070  08002fac  00020070  2**2
                  ALLOC
 10 ._user_heap_stack 00000600  20000448  08002fac  00020448  2**0
                  ALLOC
 11 .ARM.attributes 00000030  00000000  00000000  00020070  2**0
                  CONTENTS, READONLY
 12 .comment      00000050  00000000  00000000  000200a0  2**0
                  CONTENTS, READONLY
 13 .debug_frame  00000828  00000000  00000000  000200f0  2**2
                  CONTENTS, READONLY, DEBUGGING, OCTETS

Disassembly of section .text:

080001e0 <__do_global_dtors_aux>:
 80001e0:	b510      	push	{r4, lr}
 80001e2:	4c05      	ldr	r4, [pc, #20]	; (80001f8 <__do_global_dtors_aux+0x18>)
 80001e4:	7823      	ldrb	r3, [r4, #0]
 80001e6:	b933      	cbnz	r3, 80001f6 <__do_global_dtors_aux+0x16>
 80001e8:	4b04      	ldr	r3, [pc, #16]	; (80001fc <__do_global_dtors_aux+0x1c>)
 80001ea:	b113      	cbz	r3, 80001f2 <__do_global_dtors_aux+0x12>
 80001ec:	4804      	ldr	r0, [pc, #16]	; (8000200 <__do_global_dtors_aux+0x20>)
 80001ee:	f3af 8000 	nop.w
 80001f2:	2301      	movs	r3, #1
 80001f4:	7023      	strb	r3, [r4, #0]
 80001f6:	bd10      	pop	{r4, pc}
 80001f8:	20000070 	.word	0x20000070
 80001fc:	00000000 	.word	0x00000000
 8000200:	08002e70 	.word	0x08002e70

08000204 <frame_dummy>:
 8000204:	b508      	push	{r3, lr}
 8000206:	4b03      	ldr	r3, [pc, #12]	; (8000214 <frame_dummy+0x10>)
 8000208:	b11b      	cbz	r3, 8000212 <frame_dummy+0xe>
 800020a:	4903      	ldr	r1, [pc, #12]	; (8000218 <frame_dummy+0x14>)
 800020c:	4803      	ldr	r0, [pc, #12]	; (800021c <frame_dummy+0x18>)
 800020e:	f3af 8000 	nop.w
 8000212:	bd08      	pop	{r3, pc}
 8000214:	00000000 	.word	0x00000000
 8000218:	20000074 	.word	0x20000074
 800021c:	08002e70 	.word	0x08002e70

08000220 <memchr>:
 8000220:	f001 01ff 	and.w	r1, r1, #255	; 0xff
 8000224:	2a10      	cmp	r2, #16
 8000226:	db2b      	blt.n	8000280 <memchr+0x60>
 8000228:	f010 0f07 	tst.w	r0, #7
 800022c:	d008      	beq.n	8000240 <memchr+0x20>
 800022e:	f810 3b01 	ldrb.w	r3, [r0], #1
 8000232:	3a01      	subs	r2, #1
 8000234:	428b      	cmp	r3, r1
 8000236:	d02d      	beq.n	8000294 <memchr+0x74>
 8000238:	f010 0f07 	tst.w	r0, #7
 800023c:	b342      	cbz	r2, 8000290 <memchr+0x70>
 800023e:	d1f6      	bne.n	800022e <memchr+0xe>
 8000240:	b4f0      	push	{r4, r5, r6, r7}
 8000242:	ea41 2101 	orr.w	r1, r1, r1, lsl #8
 8000246:	ea41 4101 	orr.w	r1, r1, r1, lsl #16
 800024a:	f022 0407 	bic.w	r4, r2, #7
 800024e:	f07f 0700 	mvns.w	r7, #0
 8000252:	2300      	movs	r3, #0
 8000254:	e8f0 5602 	ldrd	r5, r6, [r0], #8
 8000258:	3c08      	subs	r4, #8
 800025a:	ea85 0501 	eor.w	r5, r5, r1
 800025e:	ea86 0601 	eor.w	r6, r6, r1
 8000262:	fa85 f547 	uadd8	r5, r5, r7
 8000266:	faa3 f587 	sel	r5, r3, r7
 800026a:	fa86 f647 	uadd8	r6, r6, r7
 800026e:	faa5 f687 	sel	r6, r5, r7
 8000272:	b98e      	cbnz	r6, 8000298 <memchr+0x78>
 8000274:	d1ee      	bne.n	8000254 <memchr+0x34>
 8000276:	bcf0      	pop	{r4, r5, r6, r7}
 8000278:	f001 01ff 	and.w	r1, r1, #255	; 0xff
 800027c:	f002 0207 	and.w	r2, r2, #7
 8000280:	b132      	cbz	r2, 8000290 <memchr+0x70>
 8000282:	f810 3b01 	ldrb.w	r3, [r0], #1
 8000286:	3a01      	subs	r2, #1
 8000288:	ea83 0301 	eor.w	r3, r3, r1
 800028c:	b113      	cbz	r3, 8000294 <memchr+0x74>
 800028e:	d1f8      	bne.n	8000282 <memchr+0x62>
 8000290:	2000      	movs	r0, #0
 8000292:	4770      	bx	lr
 8000294:	3801      	subs	r0, #1
 8000296:	4770      	bx	lr
 8000298:	2d00      	cmp	r5, #0
 800029a:	bf06      	itte	eq
 800029c:	4635      	moveq	r5, r6
 800029e:	3803      	subeq	r0, #3
 80002a0:	3807      	subne	r0, #7
 80002a2:	f015 0f01 	tst.w	r5, #1
 80002a6:	d107      	bne.n	80002b8 <memchr+0x98>
 80002a8:	3001      	adds	r0, #1
 80002aa:	f415 7f80 	tst.w	r5, #256	; 0x100
 80002ae:	bf02      	ittt	eq
 80002b0:	3001      	addeq	r0, #1
 80002b2:	f415 3fc0 	tsteq.w	r5, #98304	; 0x18000
 80002b6:	3001      	addeq	r0, #1
 80002b8:	bcf0      	pop	{r4, r5, r6, r7}
 80002ba:	3801      	subs	r0, #1
 80002bc:	4770      	bx	lr
 80002be:	bf00      	nop

080002c0 <SystemClock_Config>:
 80002c0:	b500      	push	{lr}
 80002c2:	b095      	sub	sp, #84	; 0x54
 80002c4:	2238      	movs	r2, #56	; 0x38
 80002c6:	2100      	movs	r1, #0
 80002c8:	a806      	add	r0, sp, #24
 80002ca:	f001 fe3b 	bl	8001f44 <memset>
 80002ce:	2214      	movs	r2, #20
 80002d0:	2100      	movs	r1, #0
 80002d2:	a801      	add	r0, sp, #4
 80002d4:	f001 fe36 	bl	8001f44 <memset>
 80002d8:	f44f 7000 	mov.w	r0, #512	; 0x200
 80002dc:	f000 fc40 	bl	8000b60 <HAL_PWREx_ControlVoltageScaling>
 80002e0:	2240      	movs	r2, #64	; 0x40
 80002e2:	f44f 7180 	mov.w	r1, #256	; 0x100
 80002e6:	2001      	movs	r0, #1
 80002e8:	e9cd 1209 	strd	r1, r2, [sp, #36]	; 0x24
 80002ec:	2212      	movs	r2, #18
 80002ee:	2302      	movs	r3, #2
 80002f0:	e9cd 020f 	strd	r0, r2, [sp, #60]	; 0x3c
 80002f4:	2206      	movs	r2, #6
 80002f6:	a806      	add	r0, sp, #24
 80002f8:	e9cd 330d 	strd	r3, r3, [sp, #52]	; 0x34
 80002fc:	e9cd 2312 	strd	r2, r3, [sp, #72]	; 0x48
 8000300:	9306      	str	r3, [sp, #24]
 8000302:	9311      	str	r3, [sp, #68]	; 0x44
 8000304:	f000 fc86 	bl	8000c14 <HAL_RCC_OscConfig>
 8000308:	b108      	cbz	r0, 800030e <SystemClock_Config+0x4e>
 800030a:	b672      	cpsid	i
 800030c:	e7fe      	b.n	800030c <SystemClock_Config+0x4c>
 800030e:	2104      	movs	r1, #4
 8000310:	e9cd 0003 	strd	r0, r0, [sp, #12]
 8000314:	220f      	movs	r2, #15
 8000316:	2303      	movs	r3, #3
 8000318:	9005      	str	r0, [sp, #20]
 800031a:	eb0d 0001 	add.w	r0, sp, r1
 800031e:	e9cd 2301 	strd	r2, r3, [sp, #4]
 8000322:	f000 febd 	bl	80010a0 <HAL_RCC_ClockConfig>
 8000326:	b108      	cbz	r0, 800032c <SystemClock_Config+0x6c>
 8000328:	b672      	cpsid	i
 800032a:	e7fe      	b.n	800032a <SystemClock_Config+0x6a>
 800032c:	b015      	add	sp, #84	; 0x54
 800032e:	f85d fb04 	ldr.w	pc, [sp], #4
	...

08000334 <main>:
 8000334:	b570      	push	{r4, r5, r6, lr}
 8000336:	b092      	sub	sp, #72	; 0x48
 8000338:	f000 fa3e 	bl	80007b8 <HAL_Init>
 800033c:	f7ff ffc0 	bl	80002c0 <SystemClock_Config>
 8000340:	2214      	movs	r2, #20
 8000342:	2100      	movs	r1, #0
 8000344:	a80b      	add	r0, sp, #44	; 0x2c
 8000346:	f001 fdfd 	bl	8001f44 <memset>
 800034a:	4b61      	ldr	r3, [pc, #388]	; (80004d0 <main+0x19c>)
 800034c:	4861      	ldr	r0, [pc, #388]	; (80004d4 <main+0x1a0>)
 800034e:	6cda      	ldr	r2, [r3, #76]	; 0x4c
 8000350:	4d61      	ldr	r5, [pc, #388]	; (80004d8 <main+0x1a4>)
 8000352:	f042 0204 	orr.w	r2, r2, #4
 8000356:	64da      	str	r2, [r3, #76]	; 0x4c
 8000358:	6cda      	ldr	r2, [r3, #76]	; 0x4c
 800035a:	f002 0204 	and.w	r2, r2, #4
 800035e:	9200      	str	r2, [sp, #0]
 8000360:	9a00      	ldr	r2, [sp, #0]
 8000362:	6cda      	ldr	r2, [r3, #76]	; 0x4c
 8000364:	f042 0220 	orr.w	r2, r2, #32
 8000368:	64da      	str	r2, [r3, #76]	; 0x4c
 800036a:	6cda      	ldr	r2, [r3, #76]	; 0x4c
 800036c:	f002 0220 	and.w	r2, r2, #32
 8000370:	9201      	str	r2, [sp, #4]
 8000372:	9a01      	ldr	r2, [sp, #4]
 8000374:	6cda      	ldr	r2, [r3, #76]	; 0x4c
 8000376:	f042 0201 	orr.w	r2, r2, #1
 800037a:	64da      	str	r2, [r3, #76]	; 0x4c
 800037c:	6cda      	ldr	r2, [r3, #76]	; 0x4c
 800037e:	f002 0201 	and.w	r2, r2, #1
 8000382:	9202      	str	r2, [sp, #8]
 8000384:	9a02      	ldr	r2, [sp, #8]
 8000386:	6cda      	ldr	r2, [r3, #76]	; 0x4c
 8000388:	f042 0202 	orr.w	r2, r2, #2
 800038c:	64da      	str	r2, [r3, #76]	; 0x4c
 800038e:	6cdb      	ldr	r3, [r3, #76]	; 0x4c
 8000390:	f003 0302 	and.w	r3, r3, #2
 8000394:	2200      	movs	r2, #0
 8000396:	9303      	str	r3, [sp, #12]
 8000398:	f44f 41f0 	mov.w	r1, #30720	; 0x7800
 800039c:	9b03      	ldr	r3, [sp, #12]
 800039e:	f000 fb65 	bl	8000a6c <HAL_GPIO_WritePin>
 80003a2:	2301      	movs	r3, #1
 80003a4:	f44f 41f0 	mov.w	r1, #30720	; 0x7800
 80003a8:	2400      	movs	r4, #0
 80003aa:	e9cd 130b 	strd	r1, r3, [sp, #44]	; 0x2c
 80003ae:	4849      	ldr	r0, [pc, #292]	; (80004d4 <main+0x1a0>)
 80003b0:	a90b      	add	r1, sp, #44	; 0x2c
 80003b2:	e9cd 440d 	strd	r4, r4, [sp, #52]	; 0x34
 80003b6:	f000 fa8d 	bl	80008d4 <HAL_GPIO_Init>
 80003ba:	4848      	ldr	r0, [pc, #288]	; (80004dc <main+0x1a8>)
 80003bc:	f44f 7382 	mov.w	r3, #260	; 0x104
 80003c0:	e9c0 5300 	strd	r5, r3, [r0]
 80003c4:	f44f 63e0 	mov.w	r3, #1792	; 0x700
 80003c8:	e9c0 3403 	strd	r3, r4, [r0, #12]
 80003cc:	f44f 7600 	mov.w	r6, #512	; 0x200
 80003d0:	2318      	movs	r3, #24
 80003d2:	e9c0 6306 	strd	r6, r3, [r0, #24]
 80003d6:	2307      	movs	r3, #7
 80003d8:	2608      	movs	r6, #8
 80003da:	e9c0 4408 	strd	r4, r4, [r0, #32]
 80003de:	e9c0 340b 	strd	r3, r4, [r0, #44]	; 0x2c
 80003e2:	6084      	str	r4, [r0, #8]
 80003e4:	6144      	str	r4, [r0, #20]
 80003e6:	6284      	str	r4, [r0, #40]	; 0x28
 80003e8:	6346      	str	r6, [r0, #52]	; 0x34
 80003ea:	f001 f88b 	bl	8001504 <HAL_SPI_Init>
 80003ee:	4604      	mov	r4, r0
 80003f0:	b108      	cbz	r0, 80003f6 <main+0xc2>
 80003f2:	b672      	cpsid	i
 80003f4:	e7fe      	b.n	80003f4 <main+0xc0>
 80003f6:	4601      	mov	r1, r0
 80003f8:	2210      	movs	r2, #16
 80003fa:	a807      	add	r0, sp, #28
 80003fc:	f001 fda2 	bl	8001f44 <memset>
 8000400:	221c      	movs	r2, #28
 8000402:	4621      	mov	r1, r4
 8000404:	a80b      	add	r0, sp, #44	; 0x2c
 8000406:	4d36      	ldr	r5, [pc, #216]	; (80004e0 <main+0x1ac>)
 8000408:	9406      	str	r4, [sp, #24]
 800040a:	e9cd 4404 	strd	r4, r4, [sp, #16]
 800040e:	f001 fd99 	bl	8001f44 <memset>
 8000412:	4a34      	ldr	r2, [pc, #208]	; (80004e4 <main+0x1b0>)
 8000414:	60ac      	str	r4, [r5, #8]
 8000416:	f643 033f 	movw	r3, #14399	; 0x383f
 800041a:	e9c5 2300 	strd	r2, r3, [r5]
 800041e:	4628      	mov	r0, r5
 8000420:	2363      	movs	r3, #99	; 0x63
 8000422:	e9c5 3403 	strd	r3, r4, [r5, #12]
 8000426:	61ac      	str	r4, [r5, #24]
 8000428:	f001 fa78 	bl	800191c <HAL_TIM_Base_Init>
 800042c:	b108      	cbz	r0, 8000432 <main+0xfe>
 800042e:	b672      	cpsid	i
 8000430:	e7fe      	b.n	8000430 <main+0xfc>
 8000432:	f44f 5380 	mov.w	r3, #4096	; 0x1000
 8000436:	a907      	add	r1, sp, #28
 8000438:	4628      	mov	r0, r5
 800043a:	9307      	str	r3, [sp, #28]
 800043c:	f001 fba0 	bl	8001b80 <HAL_TIM_ConfigClockSource>
 8000440:	b108      	cbz	r0, 8000446 <main+0x112>
 8000442:	b672      	cpsid	i
 8000444:	e7fe      	b.n	8000444 <main+0x110>
 8000446:	4628      	mov	r0, r5
 8000448:	f001 fa98 	bl	800197c <HAL_TIM_PWM_Init>
 800044c:	b108      	cbz	r0, 8000452 <main+0x11e>
 800044e:	b672      	cpsid	i
 8000450:	e7fe      	b.n	8000450 <main+0x11c>
 8000452:	9004      	str	r0, [sp, #16]
 8000454:	9006      	str	r0, [sp, #24]
 8000456:	a904      	add	r1, sp, #16
 8000458:	4628      	mov	r0, r5
 800045a:	f001 fce7 	bl	8001e2c <HAL_TIMEx_MasterConfigSynchronization>
 800045e:	b108      	cbz	r0, 8000464 <main+0x130>
 8000460:	b672      	cpsid	i
 8000462:	e7fe      	b.n	8000462 <main+0x12e>
 8000464:	2360      	movs	r3, #96	; 0x60
 8000466:	e9cd 300b 	strd	r3, r0, [sp, #44]	; 0x2c
 800046a:	900d      	str	r0, [sp, #52]	; 0x34
 800046c:	900f      	str	r0, [sp, #60]	; 0x3c
 800046e:	2204      	movs	r2, #4
 8000470:	a90b      	add	r1, sp, #44	; 0x2c
 8000472:	4628      	mov	r0, r5
 8000474:	f001 faf8 	bl	8001a68 <HAL_TIM_PWM_ConfigChannel>
 8000478:	4604      	mov	r4, r0
 800047a:	b108      	cbz	r0, 8000480 <main+0x14c>
 800047c:	b672      	cpsid	i
 800047e:	e7fe      	b.n	800047e <main+0x14a>
 8000480:	4628      	mov	r0, r5
 8000482:	f000 f8ad 	bl	80005e0 <HAL_TIM_MspPostInit>
 8000486:	4818      	ldr	r0, [pc, #96]	; (80004e8 <main+0x1b4>)
 8000488:	4b18      	ldr	r3, [pc, #96]	; (80004ec <main+0x1b8>)
 800048a:	6204      	str	r4, [r0, #32]
 800048c:	e9c0 3600 	strd	r3, r6, [r0]
 8000490:	2302      	movs	r3, #2
 8000492:	e9c0 3404 	strd	r3, r4, [r0, #16]
 8000496:	e9c0 4406 	strd	r4, r4, [r0, #24]
 800049a:	6083      	str	r3, [r0, #8]
 800049c:	f000 faeb 	bl	8000a76 <HAL_PCD_Init>
 80004a0:	4604      	mov	r4, r0
 80004a2:	b108      	cbz	r0, 80004a8 <main+0x174>
 80004a4:	b672      	cpsid	i
 80004a6:	e7fe      	b.n	80004a6 <main+0x172>
 80004a8:	2104      	movs	r1, #4
 80004aa:	4628      	mov	r0, r5
 80004ac:	f001 fcbc 	bl	8001e28 <HAL_TIM_PWM_Start>
 80004b0:	4e0f      	ldr	r6, [pc, #60]	; (80004f0 <main+0x1bc>)
 80004b2:	682b      	ldr	r3, [r5, #0]
 80004b4:	639c      	str	r4, [r3, #56]	; 0x38
 80004b6:	3405      	adds	r4, #5
 80004b8:	b2e4      	uxtb	r4, r4
 80004ba:	2c65      	cmp	r4, #101	; 0x65
 80004bc:	bf28      	it	cs
 80004be:	2400      	movcs	r4, #0
 80004c0:	4621      	mov	r1, r4
 80004c2:	4630      	mov	r0, r6
 80004c4:	f001 fd46 	bl	8001f54 <iprintf>
 80004c8:	2064      	movs	r0, #100	; 0x64
 80004ca:	f000 f997 	bl	80007fc <HAL_Delay>
 80004ce:	e7f0      	b.n	80004b2 <main+0x17e>
 80004d0:	40021000 	.word	0x40021000
 80004d4:	48000400 	.word	0x48000400
 80004d8:	40013000 	.word	0x40013000
 80004dc:	20000380 	.word	0x20000380
 80004e0:	200003e4 	.word	0x200003e4
 80004e4:	40000400 	.word	0x40000400
 80004e8:	2000008c 	.word	0x2000008c
 80004ec:	40005c00 	.word	0x40005c00
 80004f0:	08002e88 	.word	0x08002e88

080004f4 <_write>:
 80004f4:	b530      	push	{r4, r5, lr}
 80004f6:	2300      	movs	r3, #0
 80004f8:	f04f 4060 	mov.w	r0, #3758096384	; 0xe0000000
 80004fc:	4293      	cmp	r3, r2
 80004fe:	db01      	blt.n	8000504 <_write+0x10>
 8000500:	4610      	mov	r0, r2
 8000502:	bd30      	pop	{r4, r5, pc}
 8000504:	f8d0 4e80 	ldr.w	r4, [r0, #3712]	; 0xe80
 8000508:	07e5      	lsls	r5, r4, #31
 800050a:	d507      	bpl.n	800051c <_write+0x28>
 800050c:	f8d0 4e00 	ldr.w	r4, [r0, #3584]	; 0xe00
 8000510:	07e4      	lsls	r4, r4, #31
 8000512:	d503      	bpl.n	800051c <_write+0x28>
 8000514:	5ccc      	ldrb	r4, [r1, r3]
 8000516:	6805      	ldr	r5, [r0, #0]
 8000518:	b115      	cbz	r5, 8000520 <_write+0x2c>
 800051a:	7004      	strb	r4, [r0, #0]
 800051c:	3301      	adds	r3, #1
 800051e:	e7ed      	b.n	80004fc <_write+0x8>
 8000520:	bf00      	nop
 8000522:	e7f8      	b.n	8000516 <_write+0x22>

08000524 <Error_Handler>:
 8000524:	b672      	cpsid	i
 8000526:	e7fe      	b.n	8000526 <Error_Handler+0x2>

08000528 <HAL_MspInit>:
 8000528:	4b0a      	ldr	r3, [pc, #40]	; (8000554 <HAL_MspInit+0x2c>)
 800052a:	6e1a      	ldr	r2, [r3, #96]	; 0x60
 800052c:	f042 0201 	orr.w	r2, r2, #1
 8000530:	661a      	str	r2, [r3, #96]	; 0x60
 8000532:	6e1a      	ldr	r2, [r3, #96]	; 0x60
 8000534:	b082      	sub	sp, #8
 8000536:	f002 0201 	and.w	r2, r2, #1
 800053a:	9200      	str	r2, [sp, #0]
 800053c:	9a00      	ldr	r2, [sp, #0]
 800053e:	6d9a      	ldr	r2, [r3, #88]	; 0x58
 8000540:	f042 5280 	orr.w	r2, r2, #268435456	; 0x10000000
 8000544:	659a      	str	r2, [r3, #88]	; 0x58
 8000546:	6d9b      	ldr	r3, [r3, #88]	; 0x58
 8000548:	f003 5380 	and.w	r3, r3, #268435456	; 0x10000000
 800054c:	9301      	str	r3, [sp, #4]
 800054e:	9b01      	ldr	r3, [sp, #4]
 8000550:	b002      	add	sp, #8
 8000552:	4770      	bx	lr
 8000554:	40021000 	.word	0x40021000

08000558 <HAL_SPI_MspInit>:
 8000558:	b510      	push	{r4, lr}
 800055a:	4604      	mov	r4, r0
 800055c:	b088      	sub	sp, #32
 800055e:	2214      	movs	r2, #20
 8000560:	2100      	movs	r1, #0
 8000562:	a803      	add	r0, sp, #12
 8000564:	f001 fcee 	bl	8001f44 <memset>
 8000568:	6822      	ldr	r2, [r4, #0]
 800056a:	4b12      	ldr	r3, [pc, #72]	; (80005b4 <HAL_SPI_MspInit+0x5c>)
 800056c:	429a      	cmp	r2, r3
 800056e:	d11e      	bne.n	80005ae <HAL_SPI_MspInit+0x56>
 8000570:	f503 4360 	add.w	r3, r3, #57344	; 0xe000
 8000574:	a903      	add	r1, sp, #12
 8000576:	6e1a      	ldr	r2, [r3, #96]	; 0x60
 8000578:	f442 5280 	orr.w	r2, r2, #4096	; 0x1000
 800057c:	661a      	str	r2, [r3, #96]	; 0x60
 800057e:	6e1a      	ldr	r2, [r3, #96]	; 0x60
 8000580:	f402 5280 	and.w	r2, r2, #4096	; 0x1000
 8000584:	9201      	str	r2, [sp, #4]
 8000586:	9a01      	ldr	r2, [sp, #4]
 8000588:	6cda      	ldr	r2, [r3, #76]	; 0x4c
 800058a:	f042 0201 	orr.w	r2, r2, #1
 800058e:	64da      	str	r2, [r3, #76]	; 0x4c
 8000590:	6cdb      	ldr	r3, [r3, #76]	; 0x4c
 8000592:	f003 0301 	and.w	r3, r3, #1
 8000596:	9302      	str	r3, [sp, #8]
 8000598:	9b02      	ldr	r3, [sp, #8]
 800059a:	22e0      	movs	r2, #224	; 0xe0
 800059c:	2302      	movs	r3, #2
 800059e:	e9cd 2303 	strd	r2, r3, [sp, #12]
 80005a2:	f04f 4090 	mov.w	r0, #1207959552	; 0x48000000
 80005a6:	2305      	movs	r3, #5
 80005a8:	9307      	str	r3, [sp, #28]
 80005aa:	f000 f993 	bl	80008d4 <HAL_GPIO_Init>
 80005ae:	b008      	add	sp, #32
 80005b0:	bd10      	pop	{r4, pc}
 80005b2:	bf00      	nop
 80005b4:	40013000 	.word	0x40013000

080005b8 <HAL_TIM_Base_MspInit>:
 80005b8:	6802      	ldr	r2, [r0, #0]
 80005ba:	4b08      	ldr	r3, [pc, #32]	; (80005dc <HAL_TIM_Base_MspInit+0x24>)
 80005bc:	429a      	cmp	r2, r3
 80005be:	b082      	sub	sp, #8
 80005c0:	d10a      	bne.n	80005d8 <HAL_TIM_Base_MspInit+0x20>
 80005c2:	f503 3303 	add.w	r3, r3, #134144	; 0x20c00
 80005c6:	6d9a      	ldr	r2, [r3, #88]	; 0x58
 80005c8:	f042 0202 	orr.w	r2, r2, #2
 80005cc:	659a      	str	r2, [r3, #88]	; 0x58
 80005ce:	6d9b      	ldr	r3, [r3, #88]	; 0x58
 80005d0:	f003 0302 	and.w	r3, r3, #2
 80005d4:	9301      	str	r3, [sp, #4]
 80005d6:	9b01      	ldr	r3, [sp, #4]
 80005d8:	b002      	add	sp, #8
 80005da:	4770      	bx	lr
 80005dc:	40000400 	.word	0x40000400

080005e0 <HAL_TIM_MspPostInit>:
 80005e0:	b510      	push	{r4, lr}
 80005e2:	4604      	mov	r4, r0
 80005e4:	b086      	sub	sp, #24
 80005e6:	2214      	movs	r2, #20
 80005e8:	2100      	movs	r1, #0
 80005ea:	a801      	add	r0, sp, #4
 80005ec:	f001 fcaa 	bl	8001f44 <memset>
 80005f0:	6822      	ldr	r2, [r4, #0]
 80005f2:	4b0c      	ldr	r3, [pc, #48]	; (8000624 <HAL_TIM_MspPostInit+0x44>)
 80005f4:	429a      	cmp	r2, r3
 80005f6:	d113      	bne.n	8000620 <HAL_TIM_MspPostInit+0x40>
 80005f8:	f503 3303 	add.w	r3, r3, #134144	; 0x20c00
 80005fc:	480a      	ldr	r0, [pc, #40]	; (8000628 <HAL_TIM_MspPostInit+0x48>)
 80005fe:	6cda      	ldr	r2, [r3, #76]	; 0x4c
 8000600:	f042 0202 	orr.w	r2, r2, #2
 8000604:	64da      	str	r2, [r3, #76]	; 0x4c
 8000606:	6cdb      	ldr	r3, [r3, #76]	; 0x4c
 8000608:	f003 0302 	and.w	r3, r3, #2
 800060c:	9300      	str	r3, [sp, #0]
 800060e:	9b00      	ldr	r3, [sp, #0]
 8000610:	2220      	movs	r2, #32
 8000612:	2302      	movs	r3, #2
 8000614:	a901      	add	r1, sp, #4
 8000616:	e9cd 2301 	strd	r2, r3, [sp, #4]
 800061a:	9305      	str	r3, [sp, #20]
 800061c:	f000 f95a 	bl	80008d4 <HAL_GPIO_Init>
 8000620:	b006      	add	sp, #24
 8000622:	bd10      	pop	{r4, pc}
 8000624:	40000400 	.word	0x40000400
 8000628:	48000400 	.word	0x48000400

0800062c <HAL_PCD_MspInit>:
 800062c:	b510      	push	{r4, lr}
 800062e:	4604      	mov	r4, r0
 8000630:	b092      	sub	sp, #72	; 0x48
 8000632:	2244      	movs	r2, #68	; 0x44
 8000634:	2100      	movs	r1, #0
 8000636:	a801      	add	r0, sp, #4
 8000638:	f001 fc84 	bl	8001f44 <memset>
 800063c:	6822      	ldr	r2, [r4, #0]
 800063e:	4b0d      	ldr	r3, [pc, #52]	; (8000674 <HAL_PCD_MspInit+0x48>)
 8000640:	429a      	cmp	r2, r3
 8000642:	d115      	bne.n	8000670 <HAL_PCD_MspInit+0x44>
 8000644:	f44f 5300 	mov.w	r3, #8192	; 0x2000
 8000648:	9301      	str	r3, [sp, #4]
 800064a:	a801      	add	r0, sp, #4
 800064c:	f04f 6300 	mov.w	r3, #134217728	; 0x8000000
 8000650:	930e      	str	r3, [sp, #56]	; 0x38
 8000652:	f000 fe19 	bl	8001288 <HAL_RCCEx_PeriphCLKConfig>
 8000656:	b108      	cbz	r0, 800065c <HAL_PCD_MspInit+0x30>
 8000658:	f7ff ff64 	bl	8000524 <Error_Handler>
 800065c:	4b06      	ldr	r3, [pc, #24]	; (8000678 <HAL_PCD_MspInit+0x4c>)
 800065e:	6d9a      	ldr	r2, [r3, #88]	; 0x58
 8000660:	f442 0200 	orr.w	r2, r2, #8388608	; 0x800000
 8000664:	659a      	str	r2, [r3, #88]	; 0x58
 8000666:	6d9b      	ldr	r3, [r3, #88]	; 0x58
 8000668:	f403 0300 	and.w	r3, r3, #8388608	; 0x800000
 800066c:	9300      	str	r3, [sp, #0]
 800066e:	9b00      	ldr	r3, [sp, #0]
 8000670:	b012      	add	sp, #72	; 0x48
 8000672:	bd10      	pop	{r4, pc}
 8000674:	40005c00 	.word	0x40005c00
 8000678:	40021000 	.word	0x40021000

0800067c <NMI_Handler>:
 800067c:	e7fe      	b.n	800067c <NMI_Handler>

0800067e <HardFault_Handler>:
 800067e:	e7fe      	b.n	800067e <HardFault_Handler>

08000680 <MemManage_Handler>:
 8000680:	e7fe      	b.n	8000680 <MemManage_Handler>

08000682 <BusFault_Handler>:
 8000682:	e7fe      	b.n	8000682 <BusFault_Handler>

08000684 <UsageFault_Handler>:
 8000684:	e7fe      	b.n	8000684 <UsageFault_Handler>

08000686 <SVC_Handler>:
 8000686:	4770      	bx	lr

08000688 <DebugMon_Handler>:
 8000688:	4770      	bx	lr

0800068a <PendSV_Handler>:
 800068a:	4770      	bx	lr

0800068c <SysTick_Handler>:
 800068c:	f000 b8a4 	b.w	80007d8 <HAL_IncTick>

08000690 <_read>:
 8000690:	b570      	push	{r4, r5, r6, lr}
 8000692:	460d      	mov	r5, r1
 8000694:	4614      	mov	r4, r2
 8000696:	460e      	mov	r6, r1
 8000698:	1b73      	subs	r3, r6, r5
 800069a:	429c      	cmp	r4, r3
 800069c:	dc01      	bgt.n	80006a2 <_read+0x12>
 800069e:	4620      	mov	r0, r4
 80006a0:	bd70      	pop	{r4, r5, r6, pc}
 80006a2:	f3af 8000 	nop.w
 80006a6:	f806 0b01 	strb.w	r0, [r6], #1
 80006aa:	e7f5      	b.n	8000698 <_read+0x8>

080006ac <_close>:
 80006ac:	f04f 30ff 	mov.w	r0, #4294967295	; 0xffffffff
 80006b0:	4770      	bx	lr

080006b2 <_fstat>:
 80006b2:	f44f 5300 	mov.w	r3, #8192	; 0x2000
 80006b6:	604b      	str	r3, [r1, #4]
 80006b8:	2000      	movs	r0, #0
 80006ba:	4770      	bx	lr

080006bc <_isatty>:
 80006bc:	2001      	movs	r0, #1
 80006be:	4770      	bx	lr

080006c0 <_lseek>:
 80006c0:	2000      	movs	r0, #0
 80006c2:	4770      	bx	lr

080006c4 <_sbrk>:
 80006c4:	4a0b      	ldr	r2, [pc, #44]	; (80006f4 <_sbrk+0x30>)
 80006c6:	6811      	ldr	r1, [r2, #0]
 80006c8:	b510      	push	{r4, lr}
 80006ca:	4603      	mov	r3, r0
 80006cc:	b909      	cbnz	r1, 80006d2 <_sbrk+0xe>
 80006ce:	490a      	ldr	r1, [pc, #40]	; (80006f8 <_sbrk+0x34>)
 80006d0:	6011      	str	r1, [r2, #0]
 80006d2:	6810      	ldr	r0, [r2, #0]
 80006d4:	4909      	ldr	r1, [pc, #36]	; (80006fc <_sbrk+0x38>)
 80006d6:	4c0a      	ldr	r4, [pc, #40]	; (8000700 <_sbrk+0x3c>)
 80006d8:	4403      	add	r3, r0
 80006da:	1b09      	subs	r1, r1, r4
 80006dc:	428b      	cmp	r3, r1
 80006de:	d906      	bls.n	80006ee <_sbrk+0x2a>
 80006e0:	f001 fc06 	bl	8001ef0 <__errno>
 80006e4:	230c      	movs	r3, #12
 80006e6:	6003      	str	r3, [r0, #0]
 80006e8:	f04f 30ff 	mov.w	r0, #4294967295	; 0xffffffff
 80006ec:	bd10      	pop	{r4, pc}
 80006ee:	6013      	str	r3, [r2, #0]
 80006f0:	e7fc      	b.n	80006ec <_sbrk+0x28>
 80006f2:	bf00      	nop
 80006f4:	20000430 	.word	0x20000430
 80006f8:	20000448 	.word	0x20000448
 80006fc:	20008000 	.word	0x20008000
 8000700:	00000400 	.word	0x00000400

08000704 <SystemInit>:
 8000704:	4a03      	ldr	r2, [pc, #12]	; (8000714 <SystemInit+0x10>)
 8000706:	f8d2 3088 	ldr.w	r3, [r2, #136]	; 0x88
 800070a:	f443 0370 	orr.w	r3, r3, #15728640	; 0xf00000
 800070e:	f8c2 3088 	str.w	r3, [r2, #136]	; 0x88
 8000712:	4770      	bx	lr
 8000714:	e000ed00 	.word	0xe000ed00

08000718 <Reset_Handler>:
 8000718:	480d      	ldr	r0, [pc, #52]	; (8000750 <LoopForever+0x2>)
 800071a:	4685      	mov	sp, r0
 800071c:	480d      	ldr	r0, [pc, #52]	; (8000754 <LoopForever+0x6>)
 800071e:	490e      	ldr	r1, [pc, #56]	; (8000758 <LoopForever+0xa>)
 8000720:	4a0e      	ldr	r2, [pc, #56]	; (800075c <LoopForever+0xe>)
 8000722:	2300      	movs	r3, #0
 8000724:	e002      	b.n	800072c <LoopCopyDataInit>

08000726 <CopyDataInit>:
 8000726:	58d4      	ldr	r4, [r2, r3]
 8000728:	50c4      	str	r4, [r0, r3]
 800072a:	3304      	adds	r3, #4

0800072c <LoopCopyDataInit>:
 800072c:	18c4      	adds	r4, r0, r3
 800072e:	428c      	cmp	r4, r1
 8000730:	d3f9      	bcc.n	8000726 <CopyDataInit>
 8000732:	4a0b      	ldr	r2, [pc, #44]	; (8000760 <LoopForever+0x12>)
 8000734:	4c0b      	ldr	r4, [pc, #44]	; (8000764 <LoopForever+0x16>)
 8000736:	2300      	movs	r3, #0
 8000738:	e001      	b.n	800073e <LoopFillZerobss>

0800073a <FillZerobss>:
 800073a:	6013      	str	r3, [r2, #0]
 800073c:	3204      	adds	r2, #4

0800073e <LoopFillZerobss>:
 800073e:	42a2      	cmp	r2, r4
 8000740:	d3fb      	bcc.n	800073a <FillZerobss>
 8000742:	f7ff ffdf 	bl	8000704 <SystemInit>
 8000746:	f001 fbd9 	bl	8001efc <__libc_init_array>
 800074a:	f7ff fdf3 	bl	8000334 <main>

0800074e <LoopForever>:
 800074e:	e7fe      	b.n	800074e <LoopForever>
 8000750:	20008000 	.word	0x20008000
 8000754:	20000000 	.word	0x20000000
 8000758:	20000070 	.word	0x20000070
 800075c:	08002f3c 	.word	0x08002f3c
 8000760:	20000070 	.word	0x20000070
 8000764:	20000448 	.word	0x20000448

08000768 <ADC1_2_IRQHandler>:
 8000768:	e7fe      	b.n	8000768 <ADC1_2_IRQHandler>
	...

0800076c <HAL_InitTick>:
 800076c:	b538      	push	{r3, r4, r5, lr}
 800076e:	4b0f      	ldr	r3, [pc, #60]	; (80007ac <HAL_InitTick+0x40>)
 8000770:	4605      	mov	r5, r0
 8000772:	6818      	ldr	r0, [r3, #0]
 8000774:	b908      	cbnz	r0, 800077a <HAL_InitTick+0xe>
 8000776:	2001      	movs	r0, #1
 8000778:	bd38      	pop	{r3, r4, r5, pc}
 800077a:	4a0d      	ldr	r2, [pc, #52]	; (80007b0 <HAL_InitTick+0x44>)
 800077c:	f44f 737a 	mov.w	r3, #1000	; 0x3e8
 8000780:	fbb3 f3f0 	udiv	r3, r3, r0
 8000784:	6810      	ldr	r0, [r2, #0]
 8000786:	fbb0 f0f3 	udiv	r0, r0, r3
 800078a:	f000 f88f 	bl	80008ac <HAL_SYSTICK_Config>
 800078e:	4604      	mov	r4, r0
 8000790:	2800      	cmp	r0, #0
 8000792:	d1f0      	bne.n	8000776 <HAL_InitTick+0xa>
 8000794:	2d0f      	cmp	r5, #15
 8000796:	d8ee      	bhi.n	8000776 <HAL_InitTick+0xa>
 8000798:	4602      	mov	r2, r0
 800079a:	4629      	mov	r1, r5
 800079c:	f04f 30ff 	mov.w	r0, #4294967295	; 0xffffffff
 80007a0:	f000 f852 	bl	8000848 <HAL_NVIC_SetPriority>
 80007a4:	4b03      	ldr	r3, [pc, #12]	; (80007b4 <HAL_InitTick+0x48>)
 80007a6:	4620      	mov	r0, r4
 80007a8:	601d      	str	r5, [r3, #0]
 80007aa:	e7e5      	b.n	8000778 <HAL_InitTick+0xc>
 80007ac:	20000004 	.word	0x20000004
 80007b0:	20000000 	.word	0x20000000
 80007b4:	20000008 	.word	0x20000008

080007b8 <HAL_Init>:
 80007b8:	b510      	push	{r4, lr}
 80007ba:	2003      	movs	r0, #3
 80007bc:	f000 f832 	bl	8000824 <HAL_NVIC_SetPriorityGrouping>
 80007c0:	200f      	movs	r0, #15
 80007c2:	f7ff ffd3 	bl	800076c <HAL_InitTick>
 80007c6:	4604      	mov	r4, r0
 80007c8:	b918      	cbnz	r0, 80007d2 <HAL_Init+0x1a>
 80007ca:	f7ff fead 	bl	8000528 <HAL_MspInit>
 80007ce:	4620      	mov	r0, r4
 80007d0:	bd10      	pop	{r4, pc}
 80007d2:	2401      	movs	r4, #1
 80007d4:	e7fb      	b.n	80007ce <HAL_Init+0x16>
	...

080007d8 <HAL_IncTick>:
 80007d8:	4a03      	ldr	r2, [pc, #12]	; (80007e8 <HAL_IncTick+0x10>)
 80007da:	4904      	ldr	r1, [pc, #16]	; (80007ec <HAL_IncTick+0x14>)
 80007dc:	6813      	ldr	r3, [r2, #0]
 80007de:	6809      	ldr	r1, [r1, #0]
 80007e0:	440b      	add	r3, r1
 80007e2:	6013      	str	r3, [r2, #0]
 80007e4:	4770      	bx	lr
 80007e6:	bf00      	nop
 80007e8:	20000434 	.word	0x20000434
 80007ec:	20000004 	.word	0x20000004

080007f0 <HAL_GetTick>:
 80007f0:	4b01      	ldr	r3, [pc, #4]	; (80007f8 <HAL_GetTick+0x8>)
 80007f2:	6818      	ldr	r0, [r3, #0]
 80007f4:	4770      	bx	lr
 80007f6:	bf00      	nop
 80007f8:	20000434 	.word	0x20000434

080007fc <HAL_Delay>:
 80007fc:	b538      	push	{r3, r4, r5, lr}
 80007fe:	4604      	mov	r4, r0
 8000800:	f7ff fff6 	bl	80007f0 <HAL_GetTick>
 8000804:	1c63      	adds	r3, r4, #1
 8000806:	bf1c      	itt	ne
 8000808:	4b05      	ldrne	r3, [pc, #20]	; (8000820 <HAL_Delay+0x24>)
 800080a:	681b      	ldrne	r3, [r3, #0]
 800080c:	4605      	mov	r5, r0
 800080e:	bf18      	it	ne
 8000810:	18e4      	addne	r4, r4, r3
 8000812:	f7ff ffed 	bl	80007f0 <HAL_GetTick>
 8000816:	1b43      	subs	r3, r0, r5
 8000818:	42a3      	cmp	r3, r4
 800081a:	d3fa      	bcc.n	8000812 <HAL_Delay+0x16>
 800081c:	bd38      	pop	{r3, r4, r5, pc}
 800081e:	bf00      	nop
 8000820:	20000004 	.word	0x20000004

08000824 <HAL_NVIC_SetPriorityGrouping>:
 8000824:	4907      	ldr	r1, [pc, #28]	; (8000844 <HAL_NVIC_SetPriorityGrouping+0x20>)
 8000826:	68ca      	ldr	r2, [r1, #12]
 8000828:	f422 62e0 	bic.w	r2, r2, #1792	; 0x700
 800082c:	0203      	lsls	r3, r0, #8
 800082e:	0412      	lsls	r2, r2, #16
 8000830:	f403 63e0 	and.w	r3, r3, #1792	; 0x700
 8000834:	0c12      	lsrs	r2, r2, #16
 8000836:	4313      	orrs	r3, r2
 8000838:	f043 63bf 	orr.w	r3, r3, #100139008	; 0x5f80000
 800083c:	f443 3300 	orr.w	r3, r3, #131072	; 0x20000
 8000840:	60cb      	str	r3, [r1, #12]
 8000842:	4770      	bx	lr
 8000844:	e000ed00 	.word	0xe000ed00

08000848 <HAL_NVIC_SetPriority>:
 8000848:	4b16      	ldr	r3, [pc, #88]	; (80008a4 <HAL_NVIC_SetPriority+0x5c>)
 800084a:	b530      	push	{r4, r5, lr}
 800084c:	68dc      	ldr	r4, [r3, #12]
 800084e:	f3c4 2402 	ubfx	r4, r4, #8, #3
 8000852:	f1c4 0507 	rsb	r5, r4, #7
 8000856:	1d23      	adds	r3, r4, #4
 8000858:	2d04      	cmp	r5, #4
 800085a:	bf28      	it	cs
 800085c:	2504      	movcs	r5, #4
 800085e:	2b06      	cmp	r3, #6
 8000860:	f04f 33ff 	mov.w	r3, #4294967295	; 0xffffffff
 8000864:	bf8c      	ite	hi
 8000866:	3c03      	subhi	r4, #3
 8000868:	2400      	movls	r4, #0
 800086a:	fa03 f505 	lsl.w	r5, r3, r5
 800086e:	ea21 0105 	bic.w	r1, r1, r5
 8000872:	40a3      	lsls	r3, r4
 8000874:	ea22 0203 	bic.w	r2, r2, r3
 8000878:	40a1      	lsls	r1, r4
 800087a:	2800      	cmp	r0, #0
 800087c:	ea41 0302 	orr.w	r3, r1, r2
 8000880:	bfac      	ite	ge
 8000882:	f100 4060 	addge.w	r0, r0, #3758096384	; 0xe0000000
 8000886:	4a08      	ldrlt	r2, [pc, #32]	; (80008a8 <HAL_NVIC_SetPriority+0x60>)
 8000888:	ea4f 1303 	mov.w	r3, r3, lsl #4
 800088c:	bfb8      	it	lt
 800088e:	f000 000f 	andlt.w	r0, r0, #15
 8000892:	b2db      	uxtb	r3, r3
 8000894:	bfaa      	itet	ge
 8000896:	f500 4061 	addge.w	r0, r0, #57600	; 0xe100
 800089a:	5413      	strblt	r3, [r2, r0]
 800089c:	f880 3300 	strbge.w	r3, [r0, #768]	; 0x300
 80008a0:	bd30      	pop	{r4, r5, pc}
 80008a2:	bf00      	nop
 80008a4:	e000ed00 	.word	0xe000ed00
 80008a8:	e000ed14 	.word	0xe000ed14

080008ac <HAL_SYSTICK_Config>:
 80008ac:	3801      	subs	r0, #1
 80008ae:	f1b0 7f80 	cmp.w	r0, #16777216	; 0x1000000
 80008b2:	d20b      	bcs.n	80008cc <HAL_SYSTICK_Config+0x20>
 80008b4:	f04f 23e0 	mov.w	r3, #3758153728	; 0xe000e000
 80008b8:	4a05      	ldr	r2, [pc, #20]	; (80008d0 <HAL_SYSTICK_Config+0x24>)
 80008ba:	6158      	str	r0, [r3, #20]
 80008bc:	21f0      	movs	r1, #240	; 0xf0
 80008be:	f882 1023 	strb.w	r1, [r2, #35]	; 0x23
 80008c2:	2000      	movs	r0, #0
 80008c4:	2207      	movs	r2, #7
 80008c6:	6198      	str	r0, [r3, #24]
 80008c8:	611a      	str	r2, [r3, #16]
 80008ca:	4770      	bx	lr
 80008cc:	2001      	movs	r0, #1
 80008ce:	4770      	bx	lr
 80008d0:	e000ed00 	.word	0xe000ed00

080008d4 <HAL_GPIO_Init>:
 80008d4:	e92d 4ff7 	stmdb	sp!, {r0, r1, r2, r4, r5, r6, r7, r8, r9, sl, fp, lr}
 80008d8:	f8df 918c 	ldr.w	r9, [pc, #396]	; 8000a68 <HAL_GPIO_Init+0x194>
 80008dc:	4c60      	ldr	r4, [pc, #384]	; (8000a60 <HAL_GPIO_Init+0x18c>)
 80008de:	2300      	movs	r3, #0
 80008e0:	680a      	ldr	r2, [r1, #0]
 80008e2:	fa32 f503 	lsrs.w	r5, r2, r3
 80008e6:	d102      	bne.n	80008ee <HAL_GPIO_Init+0x1a>
 80008e8:	b003      	add	sp, #12
 80008ea:	e8bd 8ff0 	ldmia.w	sp!, {r4, r5, r6, r7, r8, r9, sl, fp, pc}
 80008ee:	2501      	movs	r5, #1
 80008f0:	fa05 fe03 	lsl.w	lr, r5, r3
 80008f4:	ea1e 0202 	ands.w	r2, lr, r2
 80008f8:	f000 80a5 	beq.w	8000a46 <HAL_GPIO_Init+0x172>
 80008fc:	684e      	ldr	r6, [r1, #4]
 80008fe:	f006 0503 	and.w	r5, r6, #3
 8000902:	ea4f 0843 	mov.w	r8, r3, lsl #1
 8000906:	f04f 0c03 	mov.w	ip, #3
 800090a:	1e6f      	subs	r7, r5, #1
 800090c:	fa0c fc08 	lsl.w	ip, ip, r8
 8000910:	2f01      	cmp	r7, #1
 8000912:	ea6f 0c0c 	mvn.w	ip, ip
 8000916:	d834      	bhi.n	8000982 <HAL_GPIO_Init+0xae>
 8000918:	6887      	ldr	r7, [r0, #8]
 800091a:	ea07 0a0c 	and.w	sl, r7, ip
 800091e:	68cf      	ldr	r7, [r1, #12]
 8000920:	fa07 f708 	lsl.w	r7, r7, r8
 8000924:	ea47 070a 	orr.w	r7, r7, sl
 8000928:	6087      	str	r7, [r0, #8]
 800092a:	6847      	ldr	r7, [r0, #4]
 800092c:	ea27 0e0e 	bic.w	lr, r7, lr
 8000930:	f3c6 1700 	ubfx	r7, r6, #4, #1
 8000934:	409f      	lsls	r7, r3
 8000936:	ea47 070e 	orr.w	r7, r7, lr
 800093a:	6047      	str	r7, [r0, #4]
 800093c:	68c7      	ldr	r7, [r0, #12]
 800093e:	ea07 0e0c 	and.w	lr, r7, ip
 8000942:	688f      	ldr	r7, [r1, #8]
 8000944:	fa07 f708 	lsl.w	r7, r7, r8
 8000948:	ea47 070e 	orr.w	r7, r7, lr
 800094c:	2d02      	cmp	r5, #2
 800094e:	60c7      	str	r7, [r0, #12]
 8000950:	d119      	bne.n	8000986 <HAL_GPIO_Init+0xb2>
 8000952:	ea4f 0ad3 	mov.w	sl, r3, lsr #3
 8000956:	eb00 0a8a 	add.w	sl, r0, sl, lsl #2
 800095a:	f003 0b07 	and.w	fp, r3, #7
 800095e:	f8da 7020 	ldr.w	r7, [sl, #32]
 8000962:	ea4f 0b8b 	mov.w	fp, fp, lsl #2
 8000966:	f04f 0e0f 	mov.w	lr, #15
 800096a:	fa0e fe0b 	lsl.w	lr, lr, fp
 800096e:	ea27 0e0e 	bic.w	lr, r7, lr
 8000972:	690f      	ldr	r7, [r1, #16]
 8000974:	fa07 f70b 	lsl.w	r7, r7, fp
 8000978:	ea47 070e 	orr.w	r7, r7, lr
 800097c:	f8ca 7020 	str.w	r7, [sl, #32]
 8000980:	e001      	b.n	8000986 <HAL_GPIO_Init+0xb2>
 8000982:	2d03      	cmp	r5, #3
 8000984:	d1da      	bne.n	800093c <HAL_GPIO_Init+0x68>
 8000986:	6807      	ldr	r7, [r0, #0]
 8000988:	fa05 f508 	lsl.w	r5, r5, r8
 800098c:	ea07 070c 	and.w	r7, r7, ip
 8000990:	432f      	orrs	r7, r5
 8000992:	f416 3f40 	tst.w	r6, #196608	; 0x30000
 8000996:	6007      	str	r7, [r0, #0]
 8000998:	d055      	beq.n	8000a46 <HAL_GPIO_Init+0x172>
 800099a:	f8d9 5060 	ldr.w	r5, [r9, #96]	; 0x60
 800099e:	f045 0501 	orr.w	r5, r5, #1
 80009a2:	f8c9 5060 	str.w	r5, [r9, #96]	; 0x60
 80009a6:	f8d9 5060 	ldr.w	r5, [r9, #96]	; 0x60
 80009aa:	f023 0703 	bic.w	r7, r3, #3
 80009ae:	f107 4780 	add.w	r7, r7, #1073741824	; 0x40000000
 80009b2:	f005 0501 	and.w	r5, r5, #1
 80009b6:	f507 3780 	add.w	r7, r7, #65536	; 0x10000
 80009ba:	9501      	str	r5, [sp, #4]
 80009bc:	f003 0e03 	and.w	lr, r3, #3
 80009c0:	9d01      	ldr	r5, [sp, #4]
 80009c2:	68bd      	ldr	r5, [r7, #8]
 80009c4:	ea4f 0e8e 	mov.w	lr, lr, lsl #2
 80009c8:	f04f 0c0f 	mov.w	ip, #15
 80009cc:	fa0c fc0e 	lsl.w	ip, ip, lr
 80009d0:	f1b0 4f90 	cmp.w	r0, #1207959552	; 0x48000000
 80009d4:	ea25 0c0c 	bic.w	ip, r5, ip
 80009d8:	d037      	beq.n	8000a4a <HAL_GPIO_Init+0x176>
 80009da:	4d22      	ldr	r5, [pc, #136]	; (8000a64 <HAL_GPIO_Init+0x190>)
 80009dc:	42a8      	cmp	r0, r5
 80009de:	d036      	beq.n	8000a4e <HAL_GPIO_Init+0x17a>
 80009e0:	f505 6580 	add.w	r5, r5, #1024	; 0x400
 80009e4:	42a8      	cmp	r0, r5
 80009e6:	d034      	beq.n	8000a52 <HAL_GPIO_Init+0x17e>
 80009e8:	f505 6580 	add.w	r5, r5, #1024	; 0x400
 80009ec:	42a8      	cmp	r0, r5
 80009ee:	d032      	beq.n	8000a56 <HAL_GPIO_Init+0x182>
 80009f0:	f505 6580 	add.w	r5, r5, #1024	; 0x400
 80009f4:	42a8      	cmp	r0, r5
 80009f6:	d030      	beq.n	8000a5a <HAL_GPIO_Init+0x186>
 80009f8:	f505 6580 	add.w	r5, r5, #1024	; 0x400
 80009fc:	42a8      	cmp	r0, r5
 80009fe:	bf0c      	ite	eq
 8000a00:	2505      	moveq	r5, #5
 8000a02:	2506      	movne	r5, #6
 8000a04:	fa05 f50e 	lsl.w	r5, r5, lr
 8000a08:	ea45 050c 	orr.w	r5, r5, ip
 8000a0c:	60bd      	str	r5, [r7, #8]
 8000a0e:	68a5      	ldr	r5, [r4, #8]
 8000a10:	43d7      	mvns	r7, r2
 8000a12:	f416 1f80 	tst.w	r6, #1048576	; 0x100000
 8000a16:	bf0c      	ite	eq
 8000a18:	403d      	andeq	r5, r7
 8000a1a:	4315      	orrne	r5, r2
 8000a1c:	60a5      	str	r5, [r4, #8]
 8000a1e:	68e5      	ldr	r5, [r4, #12]
 8000a20:	f416 1f00 	tst.w	r6, #2097152	; 0x200000
 8000a24:	bf0c      	ite	eq
 8000a26:	403d      	andeq	r5, r7
 8000a28:	4315      	orrne	r5, r2
 8000a2a:	60e5      	str	r5, [r4, #12]
 8000a2c:	6865      	ldr	r5, [r4, #4]
 8000a2e:	f416 3f00 	tst.w	r6, #131072	; 0x20000
 8000a32:	bf0c      	ite	eq
 8000a34:	403d      	andeq	r5, r7
 8000a36:	4315      	orrne	r5, r2
 8000a38:	6065      	str	r5, [r4, #4]
 8000a3a:	6825      	ldr	r5, [r4, #0]
 8000a3c:	03f6      	lsls	r6, r6, #15
 8000a3e:	bf54      	ite	pl
 8000a40:	403d      	andpl	r5, r7
 8000a42:	4315      	orrmi	r5, r2
 8000a44:	6025      	str	r5, [r4, #0]
 8000a46:	3301      	adds	r3, #1
 8000a48:	e74a      	b.n	80008e0 <HAL_GPIO_Init+0xc>
 8000a4a:	2500      	movs	r5, #0
 8000a4c:	e7da      	b.n	8000a04 <HAL_GPIO_Init+0x130>
 8000a4e:	2501      	movs	r5, #1
 8000a50:	e7d8      	b.n	8000a04 <HAL_GPIO_Init+0x130>
 8000a52:	2502      	movs	r5, #2
 8000a54:	e7d6      	b.n	8000a04 <HAL_GPIO_Init+0x130>
 8000a56:	2503      	movs	r5, #3
 8000a58:	e7d4      	b.n	8000a04 <HAL_GPIO_Init+0x130>
 8000a5a:	2504      	movs	r5, #4
 8000a5c:	e7d2      	b.n	8000a04 <HAL_GPIO_Init+0x130>
 8000a5e:	bf00      	nop
 8000a60:	40010400 	.word	0x40010400
 8000a64:	48000400 	.word	0x48000400
 8000a68:	40021000 	.word	0x40021000

08000a6c <HAL_GPIO_WritePin>:
 8000a6c:	b10a      	cbz	r2, 8000a72 <HAL_GPIO_WritePin+0x6>
 8000a6e:	6181      	str	r1, [r0, #24]
 8000a70:	4770      	bx	lr
 8000a72:	6281      	str	r1, [r0, #40]	; 0x28
 8000a74:	4770      	bx	lr

08000a76 <HAL_PCD_Init>:
 8000a76:	b5f0      	push	{r4, r5, r6, r7, lr}
 8000a78:	4604      	mov	r4, r0
 8000a7a:	b087      	sub	sp, #28
 8000a7c:	2800      	cmp	r0, #0
 8000a7e:	d055      	beq.n	8000b2c <HAL_PCD_Init+0xb6>
 8000a80:	f890 32a9 	ldrb.w	r3, [r0, #681]	; 0x2a9
 8000a84:	f003 02ff 	and.w	r2, r3, #255	; 0xff
 8000a88:	b91b      	cbnz	r3, 8000a92 <HAL_PCD_Init+0x1c>
 8000a8a:	f880 22a8 	strb.w	r2, [r0, #680]	; 0x2a8
 8000a8e:	f7ff fdcd 	bl	800062c <HAL_PCD_MspInit>
 8000a92:	2303      	movs	r3, #3
 8000a94:	f884 32a9 	strb.w	r3, [r4, #681]	; 0x2a9
 8000a98:	6820      	ldr	r0, [r4, #0]
 8000a9a:	f001 fa0b 	bl	8001eb4 <USB_DisableGlobalInt>
 8000a9e:	2300      	movs	r3, #0
 8000aa0:	6865      	ldr	r5, [r4, #4]
 8000aa2:	2628      	movs	r6, #40	; 0x28
 8000aa4:	2701      	movs	r7, #1
 8000aa6:	4618      	mov	r0, r3
 8000aa8:	b2d9      	uxtb	r1, r3
 8000aaa:	428d      	cmp	r5, r1
 8000aac:	f103 0201 	add.w	r2, r3, #1
 8000ab0:	d821      	bhi.n	8000af6 <HAL_PCD_Init+0x80>
 8000ab2:	2300      	movs	r3, #0
 8000ab4:	2628      	movs	r6, #40	; 0x28
 8000ab6:	4619      	mov	r1, r3
 8000ab8:	b2d8      	uxtb	r0, r3
 8000aba:	4285      	cmp	r5, r0
 8000abc:	f103 0301 	add.w	r3, r3, #1
 8000ac0:	d827      	bhi.n	8000b12 <HAL_PCD_Init+0x9c>
 8000ac2:	f104 0610 	add.w	r6, r4, #16
 8000ac6:	ce0f      	ldmia	r6!, {r0, r1, r2, r3}
 8000ac8:	466d      	mov	r5, sp
 8000aca:	c50f      	stmia	r5!, {r0, r1, r2, r3}
 8000acc:	6833      	ldr	r3, [r6, #0]
 8000ace:	602b      	str	r3, [r5, #0]
 8000ad0:	1d23      	adds	r3, r4, #4
 8000ad2:	cb0e      	ldmia	r3, {r1, r2, r3}
 8000ad4:	6820      	ldr	r0, [r4, #0]
 8000ad6:	f001 f9f7 	bl	8001ec8 <USB_DevInit>
 8000ada:	2500      	movs	r5, #0
 8000adc:	2301      	movs	r3, #1
 8000ade:	f884 5024 	strb.w	r5, [r4, #36]	; 0x24
 8000ae2:	f884 32a9 	strb.w	r3, [r4, #681]	; 0x2a9
 8000ae6:	69e3      	ldr	r3, [r4, #28]
 8000ae8:	2b01      	cmp	r3, #1
 8000aea:	d102      	bne.n	8000af2 <HAL_PCD_Init+0x7c>
 8000aec:	4620      	mov	r0, r4
 8000aee:	f000 f820 	bl	8000b32 <HAL_PCDEx_ActivateLPM>
 8000af2:	4628      	mov	r0, r5
 8000af4:	e01b      	b.n	8000b2e <HAL_PCD_Init+0xb8>
 8000af6:	fb06 4301 	mla	r3, r6, r1, r4
 8000afa:	e9c3 000e 	strd	r0, r0, [r3, #56]	; 0x38
 8000afe:	f883 7029 	strb.w	r7, [r3, #41]	; 0x29
 8000b02:	f883 1028 	strb.w	r1, [r3, #40]	; 0x28
 8000b06:	86d9      	strh	r1, [r3, #54]	; 0x36
 8000b08:	f883 002b 	strb.w	r0, [r3, #43]	; 0x2b
 8000b0c:	6418      	str	r0, [r3, #64]	; 0x40
 8000b0e:	4613      	mov	r3, r2
 8000b10:	e7ca      	b.n	8000aa8 <HAL_PCD_Init+0x32>
 8000b12:	fb06 4200 	mla	r2, r6, r0, r4
 8000b16:	e9c2 115e 	strd	r1, r1, [r2, #376]	; 0x178
 8000b1a:	f882 1169 	strb.w	r1, [r2, #361]	; 0x169
 8000b1e:	f882 0168 	strb.w	r0, [r2, #360]	; 0x168
 8000b22:	f882 116b 	strb.w	r1, [r2, #363]	; 0x16b
 8000b26:	f8c2 1180 	str.w	r1, [r2, #384]	; 0x180
 8000b2a:	e7c5      	b.n	8000ab8 <HAL_PCD_Init+0x42>
 8000b2c:	2001      	movs	r0, #1
 8000b2e:	b007      	add	sp, #28
 8000b30:	bdf0      	pop	{r4, r5, r6, r7, pc}

08000b32 <HAL_PCDEx_ActivateLPM>:
 8000b32:	6802      	ldr	r2, [r0, #0]
 8000b34:	2100      	movs	r1, #0
 8000b36:	f880 12e0 	strb.w	r1, [r0, #736]	; 0x2e0
 8000b3a:	2301      	movs	r3, #1
 8000b3c:	f8c0 32e8 	str.w	r3, [r0, #744]	; 0x2e8
 8000b40:	f8b2 3054 	ldrh.w	r3, [r2, #84]	; 0x54
 8000b44:	b29b      	uxth	r3, r3
 8000b46:	f043 0301 	orr.w	r3, r3, #1
 8000b4a:	f8a2 3054 	strh.w	r3, [r2, #84]	; 0x54
 8000b4e:	f8b2 3054 	ldrh.w	r3, [r2, #84]	; 0x54
 8000b52:	b29b      	uxth	r3, r3
 8000b54:	f043 0302 	orr.w	r3, r3, #2
 8000b58:	f8a2 3054 	strh.w	r3, [r2, #84]	; 0x54
 8000b5c:	4608      	mov	r0, r1
 8000b5e:	4770      	bx	lr

08000b60 <HAL_PWREx_ControlVoltageScaling>:
 8000b60:	4b29      	ldr	r3, [pc, #164]	; (8000c08 <HAL_PWREx_ControlVoltageScaling+0xa8>)
 8000b62:	681a      	ldr	r2, [r3, #0]
 8000b64:	bb30      	cbnz	r0, 8000bb4 <HAL_PWREx_ControlVoltageScaling+0x54>
 8000b66:	f402 62c0 	and.w	r2, r2, #1536	; 0x600
 8000b6a:	f5b2 6f80 	cmp.w	r2, #1024	; 0x400
 8000b6e:	f8d3 2080 	ldr.w	r2, [r3, #128]	; 0x80
 8000b72:	f422 7280 	bic.w	r2, r2, #256	; 0x100
 8000b76:	f8c3 2080 	str.w	r2, [r3, #128]	; 0x80
 8000b7a:	d11a      	bne.n	8000bb2 <HAL_PWREx_ControlVoltageScaling+0x52>
 8000b7c:	681a      	ldr	r2, [r3, #0]
 8000b7e:	f422 62c0 	bic.w	r2, r2, #1536	; 0x600
 8000b82:	f442 7200 	orr.w	r2, r2, #512	; 0x200
 8000b86:	601a      	str	r2, [r3, #0]
 8000b88:	4a20      	ldr	r2, [pc, #128]	; (8000c0c <HAL_PWREx_ControlVoltageScaling+0xac>)
 8000b8a:	6812      	ldr	r2, [r2, #0]
 8000b8c:	2132      	movs	r1, #50	; 0x32
 8000b8e:	434a      	muls	r2, r1
 8000b90:	491f      	ldr	r1, [pc, #124]	; (8000c10 <HAL_PWREx_ControlVoltageScaling+0xb0>)
 8000b92:	fbb2 f2f1 	udiv	r2, r2, r1
 8000b96:	3201      	adds	r2, #1
 8000b98:	6959      	ldr	r1, [r3, #20]
 8000b9a:	0549      	lsls	r1, r1, #21
 8000b9c:	d500      	bpl.n	8000ba0 <HAL_PWREx_ControlVoltageScaling+0x40>
 8000b9e:	b922      	cbnz	r2, 8000baa <HAL_PWREx_ControlVoltageScaling+0x4a>
 8000ba0:	695b      	ldr	r3, [r3, #20]
 8000ba2:	0558      	lsls	r0, r3, #21
 8000ba4:	d403      	bmi.n	8000bae <HAL_PWREx_ControlVoltageScaling+0x4e>
 8000ba6:	2000      	movs	r0, #0
 8000ba8:	4770      	bx	lr
 8000baa:	3a01      	subs	r2, #1
 8000bac:	e7f4      	b.n	8000b98 <HAL_PWREx_ControlVoltageScaling+0x38>
 8000bae:	2003      	movs	r0, #3
 8000bb0:	4770      	bx	lr
 8000bb2:	4770      	bx	lr
 8000bb4:	f5b0 7f00 	cmp.w	r0, #512	; 0x200
 8000bb8:	d11f      	bne.n	8000bfa <HAL_PWREx_ControlVoltageScaling+0x9a>
 8000bba:	f402 62c0 	and.w	r2, r2, #1536	; 0x600
 8000bbe:	f5b2 6f80 	cmp.w	r2, #1024	; 0x400
 8000bc2:	f8d3 2080 	ldr.w	r2, [r3, #128]	; 0x80
 8000bc6:	f442 7280 	orr.w	r2, r2, #256	; 0x100
 8000bca:	f8c3 2080 	str.w	r2, [r3, #128]	; 0x80
 8000bce:	d1ea      	bne.n	8000ba6 <HAL_PWREx_ControlVoltageScaling+0x46>
 8000bd0:	681a      	ldr	r2, [r3, #0]
 8000bd2:	f422 62c0 	bic.w	r2, r2, #1536	; 0x600
 8000bd6:	f442 7200 	orr.w	r2, r2, #512	; 0x200
 8000bda:	601a      	str	r2, [r3, #0]
 8000bdc:	4a0b      	ldr	r2, [pc, #44]	; (8000c0c <HAL_PWREx_ControlVoltageScaling+0xac>)
 8000bde:	6812      	ldr	r2, [r2, #0]
 8000be0:	2132      	movs	r1, #50	; 0x32
 8000be2:	434a      	muls	r2, r1
 8000be4:	490a      	ldr	r1, [pc, #40]	; (8000c10 <HAL_PWREx_ControlVoltageScaling+0xb0>)
 8000be6:	fbb2 f2f1 	udiv	r2, r2, r1
 8000bea:	3201      	adds	r2, #1
 8000bec:	6959      	ldr	r1, [r3, #20]
 8000bee:	0549      	lsls	r1, r1, #21
 8000bf0:	d5d6      	bpl.n	8000ba0 <HAL_PWREx_ControlVoltageScaling+0x40>
 8000bf2:	2a00      	cmp	r2, #0
 8000bf4:	d0d4      	beq.n	8000ba0 <HAL_PWREx_ControlVoltageScaling+0x40>
 8000bf6:	3a01      	subs	r2, #1
 8000bf8:	e7f8      	b.n	8000bec <HAL_PWREx_ControlVoltageScaling+0x8c>
 8000bfa:	f422 62c0 	bic.w	r2, r2, #1536	; 0x600
 8000bfe:	f442 6280 	orr.w	r2, r2, #1024	; 0x400
 8000c02:	601a      	str	r2, [r3, #0]
 8000c04:	e7cf      	b.n	8000ba6 <HAL_PWREx_ControlVoltageScaling+0x46>
 8000c06:	bf00      	nop
 8000c08:	40007000 	.word	0x40007000
 8000c0c:	20000000 	.word	0x20000000
 8000c10:	000f4240 	.word	0x000f4240

08000c14 <HAL_RCC_OscConfig>:
 8000c14:	e92d 41f3 	stmdb	sp!, {r0, r1, r4, r5, r6, r7, r8, lr}
 8000c18:	4604      	mov	r4, r0
 8000c1a:	b340      	cbz	r0, 8000c6e <HAL_RCC_OscConfig+0x5a>
 8000c1c:	6803      	ldr	r3, [r0, #0]
 8000c1e:	07df      	lsls	r7, r3, #31
 8000c20:	d414      	bmi.n	8000c4c <HAL_RCC_OscConfig+0x38>
 8000c22:	6823      	ldr	r3, [r4, #0]
 8000c24:	079e      	lsls	r6, r3, #30
 8000c26:	d45b      	bmi.n	8000ce0 <HAL_RCC_OscConfig+0xcc>
 8000c28:	6823      	ldr	r3, [r4, #0]
 8000c2a:	071e      	lsls	r6, r3, #28
 8000c2c:	f100 80a4 	bmi.w	8000d78 <HAL_RCC_OscConfig+0x164>
 8000c30:	6823      	ldr	r3, [r4, #0]
 8000c32:	075d      	lsls	r5, r3, #29
 8000c34:	f100 80cb 	bmi.w	8000dce <HAL_RCC_OscConfig+0x1ba>
 8000c38:	6823      	ldr	r3, [r4, #0]
 8000c3a:	069b      	lsls	r3, r3, #26
 8000c3c:	f100 8132 	bmi.w	8000ea4 <HAL_RCC_OscConfig+0x290>
 8000c40:	69e0      	ldr	r0, [r4, #28]
 8000c42:	2800      	cmp	r0, #0
 8000c44:	f040 8160 	bne.w	8000f08 <HAL_RCC_OscConfig+0x2f4>
 8000c48:	2000      	movs	r0, #0
 8000c4a:	e028      	b.n	8000c9e <HAL_RCC_OscConfig+0x8a>
 8000c4c:	4da1      	ldr	r5, [pc, #644]	; (8000ed4 <HAL_RCC_OscConfig+0x2c0>)
 8000c4e:	68ab      	ldr	r3, [r5, #8]
 8000c50:	68ea      	ldr	r2, [r5, #12]
 8000c52:	f003 030c 	and.w	r3, r3, #12
 8000c56:	2b0c      	cmp	r3, #12
 8000c58:	d10b      	bne.n	8000c72 <HAL_RCC_OscConfig+0x5e>
 8000c5a:	f002 0303 	and.w	r3, r2, #3
 8000c5e:	2b03      	cmp	r3, #3
 8000c60:	d109      	bne.n	8000c76 <HAL_RCC_OscConfig+0x62>
 8000c62:	682b      	ldr	r3, [r5, #0]
 8000c64:	039d      	lsls	r5, r3, #14
 8000c66:	d5dc      	bpl.n	8000c22 <HAL_RCC_OscConfig+0xe>
 8000c68:	6863      	ldr	r3, [r4, #4]
 8000c6a:	2b00      	cmp	r3, #0
 8000c6c:	d1d9      	bne.n	8000c22 <HAL_RCC_OscConfig+0xe>
 8000c6e:	2001      	movs	r0, #1
 8000c70:	e015      	b.n	8000c9e <HAL_RCC_OscConfig+0x8a>
 8000c72:	2b08      	cmp	r3, #8
 8000c74:	e7f4      	b.n	8000c60 <HAL_RCC_OscConfig+0x4c>
 8000c76:	6863      	ldr	r3, [r4, #4]
 8000c78:	f5b3 3f80 	cmp.w	r3, #65536	; 0x10000
 8000c7c:	d112      	bne.n	8000ca4 <HAL_RCC_OscConfig+0x90>
 8000c7e:	682b      	ldr	r3, [r5, #0]
 8000c80:	f443 3380 	orr.w	r3, r3, #65536	; 0x10000
 8000c84:	602b      	str	r3, [r5, #0]
 8000c86:	f7ff fdb3 	bl	80007f0 <HAL_GetTick>
 8000c8a:	4606      	mov	r6, r0
 8000c8c:	682b      	ldr	r3, [r5, #0]
 8000c8e:	0398      	lsls	r0, r3, #14
 8000c90:	d4c7      	bmi.n	8000c22 <HAL_RCC_OscConfig+0xe>
 8000c92:	f7ff fdad 	bl	80007f0 <HAL_GetTick>
 8000c96:	1b80      	subs	r0, r0, r6
 8000c98:	2864      	cmp	r0, #100	; 0x64
 8000c9a:	d9f7      	bls.n	8000c8c <HAL_RCC_OscConfig+0x78>
 8000c9c:	2003      	movs	r0, #3
 8000c9e:	b002      	add	sp, #8
 8000ca0:	e8bd 81f0 	ldmia.w	sp!, {r4, r5, r6, r7, r8, pc}
 8000ca4:	f5b3 2fa0 	cmp.w	r3, #327680	; 0x50000
 8000ca8:	d104      	bne.n	8000cb4 <HAL_RCC_OscConfig+0xa0>
 8000caa:	682b      	ldr	r3, [r5, #0]
 8000cac:	f443 2380 	orr.w	r3, r3, #262144	; 0x40000
 8000cb0:	602b      	str	r3, [r5, #0]
 8000cb2:	e7e4      	b.n	8000c7e <HAL_RCC_OscConfig+0x6a>
 8000cb4:	682a      	ldr	r2, [r5, #0]
 8000cb6:	f422 3280 	bic.w	r2, r2, #65536	; 0x10000
 8000cba:	602a      	str	r2, [r5, #0]
 8000cbc:	682a      	ldr	r2, [r5, #0]
 8000cbe:	f422 2280 	bic.w	r2, r2, #262144	; 0x40000
 8000cc2:	602a      	str	r2, [r5, #0]
 8000cc4:	2b00      	cmp	r3, #0
 8000cc6:	d1de      	bne.n	8000c86 <HAL_RCC_OscConfig+0x72>
 8000cc8:	f7ff fd92 	bl	80007f0 <HAL_GetTick>
 8000ccc:	4606      	mov	r6, r0
 8000cce:	682b      	ldr	r3, [r5, #0]
 8000cd0:	0399      	lsls	r1, r3, #14
 8000cd2:	d5a6      	bpl.n	8000c22 <HAL_RCC_OscConfig+0xe>
 8000cd4:	f7ff fd8c 	bl	80007f0 <HAL_GetTick>
 8000cd8:	1b80      	subs	r0, r0, r6
 8000cda:	2864      	cmp	r0, #100	; 0x64
 8000cdc:	d9f7      	bls.n	8000cce <HAL_RCC_OscConfig+0xba>
 8000cde:	e7dd      	b.n	8000c9c <HAL_RCC_OscConfig+0x88>
 8000ce0:	4d7c      	ldr	r5, [pc, #496]	; (8000ed4 <HAL_RCC_OscConfig+0x2c0>)
 8000ce2:	68ab      	ldr	r3, [r5, #8]
 8000ce4:	68ea      	ldr	r2, [r5, #12]
 8000ce6:	f003 030c 	and.w	r3, r3, #12
 8000cea:	2b0c      	cmp	r3, #12
 8000cec:	d117      	bne.n	8000d1e <HAL_RCC_OscConfig+0x10a>
 8000cee:	f002 0303 	and.w	r3, r2, #3
 8000cf2:	2b02      	cmp	r3, #2
 8000cf4:	d115      	bne.n	8000d22 <HAL_RCC_OscConfig+0x10e>
 8000cf6:	682b      	ldr	r3, [r5, #0]
 8000cf8:	055a      	lsls	r2, r3, #21
 8000cfa:	d502      	bpl.n	8000d02 <HAL_RCC_OscConfig+0xee>
 8000cfc:	68e3      	ldr	r3, [r4, #12]
 8000cfe:	2b00      	cmp	r3, #0
 8000d00:	d0b5      	beq.n	8000c6e <HAL_RCC_OscConfig+0x5a>
 8000d02:	686b      	ldr	r3, [r5, #4]
 8000d04:	6922      	ldr	r2, [r4, #16]
 8000d06:	f023 43fe 	bic.w	r3, r3, #2130706432	; 0x7f000000
 8000d0a:	ea43 6302 	orr.w	r3, r3, r2, lsl #24
 8000d0e:	606b      	str	r3, [r5, #4]
 8000d10:	4b71      	ldr	r3, [pc, #452]	; (8000ed8 <HAL_RCC_OscConfig+0x2c4>)
 8000d12:	6818      	ldr	r0, [r3, #0]
 8000d14:	f7ff fd2a 	bl	800076c <HAL_InitTick>
 8000d18:	2800      	cmp	r0, #0
 8000d1a:	d085      	beq.n	8000c28 <HAL_RCC_OscConfig+0x14>
 8000d1c:	e7a7      	b.n	8000c6e <HAL_RCC_OscConfig+0x5a>
 8000d1e:	2b04      	cmp	r3, #4
 8000d20:	e7e8      	b.n	8000cf4 <HAL_RCC_OscConfig+0xe0>
 8000d22:	68e3      	ldr	r3, [r4, #12]
 8000d24:	b1bb      	cbz	r3, 8000d56 <HAL_RCC_OscConfig+0x142>
 8000d26:	682b      	ldr	r3, [r5, #0]
 8000d28:	f443 7380 	orr.w	r3, r3, #256	; 0x100
 8000d2c:	602b      	str	r3, [r5, #0]
 8000d2e:	f7ff fd5f 	bl	80007f0 <HAL_GetTick>
 8000d32:	4606      	mov	r6, r0
 8000d34:	682b      	ldr	r3, [r5, #0]
 8000d36:	055b      	lsls	r3, r3, #21
 8000d38:	d507      	bpl.n	8000d4a <HAL_RCC_OscConfig+0x136>
 8000d3a:	686b      	ldr	r3, [r5, #4]
 8000d3c:	6922      	ldr	r2, [r4, #16]
 8000d3e:	f023 43fe 	bic.w	r3, r3, #2130706432	; 0x7f000000
 8000d42:	ea43 6302 	orr.w	r3, r3, r2, lsl #24
 8000d46:	606b      	str	r3, [r5, #4]
 8000d48:	e76e      	b.n	8000c28 <HAL_RCC_OscConfig+0x14>
 8000d4a:	f7ff fd51 	bl	80007f0 <HAL_GetTick>
 8000d4e:	1b80      	subs	r0, r0, r6
 8000d50:	2802      	cmp	r0, #2
 8000d52:	d9ef      	bls.n	8000d34 <HAL_RCC_OscConfig+0x120>
 8000d54:	e7a2      	b.n	8000c9c <HAL_RCC_OscConfig+0x88>
 8000d56:	682b      	ldr	r3, [r5, #0]
 8000d58:	f423 7380 	bic.w	r3, r3, #256	; 0x100
 8000d5c:	602b      	str	r3, [r5, #0]
 8000d5e:	f7ff fd47 	bl	80007f0 <HAL_GetTick>
 8000d62:	4606      	mov	r6, r0
 8000d64:	682b      	ldr	r3, [r5, #0]
 8000d66:	055f      	lsls	r7, r3, #21
 8000d68:	f57f af5e 	bpl.w	8000c28 <HAL_RCC_OscConfig+0x14>
 8000d6c:	f7ff fd40 	bl	80007f0 <HAL_GetTick>
 8000d70:	1b80      	subs	r0, r0, r6
 8000d72:	2802      	cmp	r0, #2
 8000d74:	d9f6      	bls.n	8000d64 <HAL_RCC_OscConfig+0x150>
 8000d76:	e791      	b.n	8000c9c <HAL_RCC_OscConfig+0x88>
 8000d78:	6963      	ldr	r3, [r4, #20]
 8000d7a:	4d56      	ldr	r5, [pc, #344]	; (8000ed4 <HAL_RCC_OscConfig+0x2c0>)
 8000d7c:	b19b      	cbz	r3, 8000da6 <HAL_RCC_OscConfig+0x192>
 8000d7e:	f8d5 3094 	ldr.w	r3, [r5, #148]	; 0x94
 8000d82:	f043 0301 	orr.w	r3, r3, #1
 8000d86:	f8c5 3094 	str.w	r3, [r5, #148]	; 0x94
 8000d8a:	f7ff fd31 	bl	80007f0 <HAL_GetTick>
 8000d8e:	4606      	mov	r6, r0
 8000d90:	f8d5 3094 	ldr.w	r3, [r5, #148]	; 0x94
 8000d94:	0798      	lsls	r0, r3, #30
 8000d96:	f53f af4b 	bmi.w	8000c30 <HAL_RCC_OscConfig+0x1c>
 8000d9a:	f7ff fd29 	bl	80007f0 <HAL_GetTick>
 8000d9e:	1b80      	subs	r0, r0, r6
 8000da0:	2802      	cmp	r0, #2
 8000da2:	d9f5      	bls.n	8000d90 <HAL_RCC_OscConfig+0x17c>
 8000da4:	e77a      	b.n	8000c9c <HAL_RCC_OscConfig+0x88>
 8000da6:	f8d5 3094 	ldr.w	r3, [r5, #148]	; 0x94
 8000daa:	f023 0301 	bic.w	r3, r3, #1
 8000dae:	f8c5 3094 	str.w	r3, [r5, #148]	; 0x94
 8000db2:	f7ff fd1d 	bl	80007f0 <HAL_GetTick>
 8000db6:	4606      	mov	r6, r0
 8000db8:	f8d5 3094 	ldr.w	r3, [r5, #148]	; 0x94
 8000dbc:	0799      	lsls	r1, r3, #30
 8000dbe:	f57f af37 	bpl.w	8000c30 <HAL_RCC_OscConfig+0x1c>
 8000dc2:	f7ff fd15 	bl	80007f0 <HAL_GetTick>
 8000dc6:	1b80      	subs	r0, r0, r6
 8000dc8:	2802      	cmp	r0, #2
 8000dca:	d9f5      	bls.n	8000db8 <HAL_RCC_OscConfig+0x1a4>
 8000dcc:	e766      	b.n	8000c9c <HAL_RCC_OscConfig+0x88>
 8000dce:	4d41      	ldr	r5, [pc, #260]	; (8000ed4 <HAL_RCC_OscConfig+0x2c0>)
 8000dd0:	6dab      	ldr	r3, [r5, #88]	; 0x58
 8000dd2:	00da      	lsls	r2, r3, #3
 8000dd4:	d427      	bmi.n	8000e26 <HAL_RCC_OscConfig+0x212>
 8000dd6:	6dab      	ldr	r3, [r5, #88]	; 0x58
 8000dd8:	f043 5380 	orr.w	r3, r3, #268435456	; 0x10000000
 8000ddc:	65ab      	str	r3, [r5, #88]	; 0x58
 8000dde:	6dab      	ldr	r3, [r5, #88]	; 0x58
 8000de0:	f003 5380 	and.w	r3, r3, #268435456	; 0x10000000
 8000de4:	9301      	str	r3, [sp, #4]
 8000de6:	9b01      	ldr	r3, [sp, #4]
 8000de8:	2701      	movs	r7, #1
 8000dea:	4e3c      	ldr	r6, [pc, #240]	; (8000edc <HAL_RCC_OscConfig+0x2c8>)
 8000dec:	6833      	ldr	r3, [r6, #0]
 8000dee:	05db      	lsls	r3, r3, #23
 8000df0:	d51b      	bpl.n	8000e2a <HAL_RCC_OscConfig+0x216>
 8000df2:	68a3      	ldr	r3, [r4, #8]
 8000df4:	2b01      	cmp	r3, #1
 8000df6:	d129      	bne.n	8000e4c <HAL_RCC_OscConfig+0x238>
 8000df8:	f8d5 3090 	ldr.w	r3, [r5, #144]	; 0x90
 8000dfc:	f043 0301 	orr.w	r3, r3, #1
 8000e00:	f8c5 3090 	str.w	r3, [r5, #144]	; 0x90
 8000e04:	f7ff fcf4 	bl	80007f0 <HAL_GetTick>
 8000e08:	f241 3888 	movw	r8, #5000	; 0x1388
 8000e0c:	4606      	mov	r6, r0
 8000e0e:	f8d5 3090 	ldr.w	r3, [r5, #144]	; 0x90
 8000e12:	0799      	lsls	r1, r3, #30
 8000e14:	d540      	bpl.n	8000e98 <HAL_RCC_OscConfig+0x284>
 8000e16:	2f00      	cmp	r7, #0
 8000e18:	f43f af0e 	beq.w	8000c38 <HAL_RCC_OscConfig+0x24>
 8000e1c:	6dab      	ldr	r3, [r5, #88]	; 0x58
 8000e1e:	f023 5380 	bic.w	r3, r3, #268435456	; 0x10000000
 8000e22:	65ab      	str	r3, [r5, #88]	; 0x58
 8000e24:	e708      	b.n	8000c38 <HAL_RCC_OscConfig+0x24>
 8000e26:	2700      	movs	r7, #0
 8000e28:	e7df      	b.n	8000dea <HAL_RCC_OscConfig+0x1d6>
 8000e2a:	6833      	ldr	r3, [r6, #0]
 8000e2c:	f443 7380 	orr.w	r3, r3, #256	; 0x100
 8000e30:	6033      	str	r3, [r6, #0]
 8000e32:	f7ff fcdd 	bl	80007f0 <HAL_GetTick>
 8000e36:	4680      	mov	r8, r0
 8000e38:	6833      	ldr	r3, [r6, #0]
 8000e3a:	05d8      	lsls	r0, r3, #23
 8000e3c:	d4d9      	bmi.n	8000df2 <HAL_RCC_OscConfig+0x1de>
 8000e3e:	f7ff fcd7 	bl	80007f0 <HAL_GetTick>
 8000e42:	eba0 0008 	sub.w	r0, r0, r8
 8000e46:	2802      	cmp	r0, #2
 8000e48:	d9f6      	bls.n	8000e38 <HAL_RCC_OscConfig+0x224>
 8000e4a:	e727      	b.n	8000c9c <HAL_RCC_OscConfig+0x88>
 8000e4c:	2b05      	cmp	r3, #5
 8000e4e:	d106      	bne.n	8000e5e <HAL_RCC_OscConfig+0x24a>
 8000e50:	f8d5 3090 	ldr.w	r3, [r5, #144]	; 0x90
 8000e54:	f043 0304 	orr.w	r3, r3, #4
 8000e58:	f8c5 3090 	str.w	r3, [r5, #144]	; 0x90
 8000e5c:	e7cc      	b.n	8000df8 <HAL_RCC_OscConfig+0x1e4>
 8000e5e:	f8d5 2090 	ldr.w	r2, [r5, #144]	; 0x90
 8000e62:	f022 0201 	bic.w	r2, r2, #1
 8000e66:	f8c5 2090 	str.w	r2, [r5, #144]	; 0x90
 8000e6a:	f8d5 2090 	ldr.w	r2, [r5, #144]	; 0x90
 8000e6e:	f022 0204 	bic.w	r2, r2, #4
 8000e72:	f8c5 2090 	str.w	r2, [r5, #144]	; 0x90
 8000e76:	2b00      	cmp	r3, #0
 8000e78:	d1c4      	bne.n	8000e04 <HAL_RCC_OscConfig+0x1f0>
 8000e7a:	f7ff fcb9 	bl	80007f0 <HAL_GetTick>
 8000e7e:	f241 3888 	movw	r8, #5000	; 0x1388
 8000e82:	4606      	mov	r6, r0
 8000e84:	f8d5 3090 	ldr.w	r3, [r5, #144]	; 0x90
 8000e88:	079a      	lsls	r2, r3, #30
 8000e8a:	d5c4      	bpl.n	8000e16 <HAL_RCC_OscConfig+0x202>
 8000e8c:	f7ff fcb0 	bl	80007f0 <HAL_GetTick>
 8000e90:	1b80      	subs	r0, r0, r6
 8000e92:	4540      	cmp	r0, r8
 8000e94:	d9f6      	bls.n	8000e84 <HAL_RCC_OscConfig+0x270>
 8000e96:	e701      	b.n	8000c9c <HAL_RCC_OscConfig+0x88>
 8000e98:	f7ff fcaa 	bl	80007f0 <HAL_GetTick>
 8000e9c:	1b80      	subs	r0, r0, r6
 8000e9e:	4540      	cmp	r0, r8
 8000ea0:	d9b5      	bls.n	8000e0e <HAL_RCC_OscConfig+0x1fa>
 8000ea2:	e6fb      	b.n	8000c9c <HAL_RCC_OscConfig+0x88>
 8000ea4:	69a3      	ldr	r3, [r4, #24]
 8000ea6:	4d0b      	ldr	r5, [pc, #44]	; (8000ed4 <HAL_RCC_OscConfig+0x2c0>)
 8000ea8:	b1d3      	cbz	r3, 8000ee0 <HAL_RCC_OscConfig+0x2cc>
 8000eaa:	f8d5 3098 	ldr.w	r3, [r5, #152]	; 0x98
 8000eae:	f043 0301 	orr.w	r3, r3, #1
 8000eb2:	f8c5 3098 	str.w	r3, [r5, #152]	; 0x98
 8000eb6:	f7ff fc9b 	bl	80007f0 <HAL_GetTick>
 8000eba:	4606      	mov	r6, r0
 8000ebc:	f8d5 3098 	ldr.w	r3, [r5, #152]	; 0x98
 8000ec0:	079f      	lsls	r7, r3, #30
 8000ec2:	f53f aebd 	bmi.w	8000c40 <HAL_RCC_OscConfig+0x2c>
 8000ec6:	f7ff fc93 	bl	80007f0 <HAL_GetTick>
 8000eca:	1b80      	subs	r0, r0, r6
 8000ecc:	2802      	cmp	r0, #2
 8000ece:	d9f5      	bls.n	8000ebc <HAL_RCC_OscConfig+0x2a8>
 8000ed0:	e6e4      	b.n	8000c9c <HAL_RCC_OscConfig+0x88>
 8000ed2:	bf00      	nop
 8000ed4:	40021000 	.word	0x40021000
 8000ed8:	20000008 	.word	0x20000008
 8000edc:	40007000 	.word	0x40007000
 8000ee0:	f8d5 3098 	ldr.w	r3, [r5, #152]	; 0x98
 8000ee4:	f023 0301 	bic.w	r3, r3, #1
 8000ee8:	f8c5 3098 	str.w	r3, [r5, #152]	; 0x98
 8000eec:	f7ff fc80 	bl	80007f0 <HAL_GetTick>
 8000ef0:	4606      	mov	r6, r0
 8000ef2:	f8d5 3098 	ldr.w	r3, [r5, #152]	; 0x98
 8000ef6:	0798      	lsls	r0, r3, #30
 8000ef8:	f57f aea2 	bpl.w	8000c40 <HAL_RCC_OscConfig+0x2c>
 8000efc:	f7ff fc78 	bl	80007f0 <HAL_GetTick>
 8000f00:	1b80      	subs	r0, r0, r6
 8000f02:	2802      	cmp	r0, #2
 8000f04:	d9f5      	bls.n	8000ef2 <HAL_RCC_OscConfig+0x2de>
 8000f06:	e6c9      	b.n	8000c9c <HAL_RCC_OscConfig+0x88>
 8000f08:	4d48      	ldr	r5, [pc, #288]	; (800102c <HAL_RCC_OscConfig+0x418>)
 8000f0a:	68ab      	ldr	r3, [r5, #8]
 8000f0c:	f003 030c 	and.w	r3, r3, #12
 8000f10:	2b0c      	cmp	r3, #12
 8000f12:	d057      	beq.n	8000fc4 <HAL_RCC_OscConfig+0x3b0>
 8000f14:	682b      	ldr	r3, [r5, #0]
 8000f16:	2802      	cmp	r0, #2
 8000f18:	f023 7380 	bic.w	r3, r3, #16777216	; 0x1000000
 8000f1c:	602b      	str	r3, [r5, #0]
 8000f1e:	d13a      	bne.n	8000f96 <HAL_RCC_OscConfig+0x382>
 8000f20:	f7ff fc66 	bl	80007f0 <HAL_GetTick>
 8000f24:	4606      	mov	r6, r0
 8000f26:	682b      	ldr	r3, [r5, #0]
 8000f28:	0199      	lsls	r1, r3, #6
 8000f2a:	d42e      	bmi.n	8000f8a <HAL_RCC_OscConfig+0x376>
 8000f2c:	68ea      	ldr	r2, [r5, #12]
 8000f2e:	4b40      	ldr	r3, [pc, #256]	; (8001030 <HAL_RCC_OscConfig+0x41c>)
 8000f30:	4013      	ands	r3, r2
 8000f32:	6a22      	ldr	r2, [r4, #32]
 8000f34:	4313      	orrs	r3, r2
 8000f36:	6aa2      	ldr	r2, [r4, #40]	; 0x28
 8000f38:	ea43 2302 	orr.w	r3, r3, r2, lsl #8
 8000f3c:	6ae2      	ldr	r2, [r4, #44]	; 0x2c
 8000f3e:	ea43 63c2 	orr.w	r3, r3, r2, lsl #27
 8000f42:	6a62      	ldr	r2, [r4, #36]	; 0x24
 8000f44:	3a01      	subs	r2, #1
 8000f46:	ea43 1302 	orr.w	r3, r3, r2, lsl #4
 8000f4a:	6b22      	ldr	r2, [r4, #48]	; 0x30
 8000f4c:	0852      	lsrs	r2, r2, #1
 8000f4e:	3a01      	subs	r2, #1
 8000f50:	ea43 5342 	orr.w	r3, r3, r2, lsl #21
 8000f54:	6b62      	ldr	r2, [r4, #52]	; 0x34
 8000f56:	0852      	lsrs	r2, r2, #1
 8000f58:	3a01      	subs	r2, #1
 8000f5a:	ea43 6342 	orr.w	r3, r3, r2, lsl #25
 8000f5e:	60eb      	str	r3, [r5, #12]
 8000f60:	682b      	ldr	r3, [r5, #0]
 8000f62:	f043 7380 	orr.w	r3, r3, #16777216	; 0x1000000
 8000f66:	602b      	str	r3, [r5, #0]
 8000f68:	68eb      	ldr	r3, [r5, #12]
 8000f6a:	f043 7380 	orr.w	r3, r3, #16777216	; 0x1000000
 8000f6e:	60eb      	str	r3, [r5, #12]
 8000f70:	f7ff fc3e 	bl	80007f0 <HAL_GetTick>
 8000f74:	4604      	mov	r4, r0
 8000f76:	682b      	ldr	r3, [r5, #0]
 8000f78:	019a      	lsls	r2, r3, #6
 8000f7a:	f53f ae65 	bmi.w	8000c48 <HAL_RCC_OscConfig+0x34>
 8000f7e:	f7ff fc37 	bl	80007f0 <HAL_GetTick>
 8000f82:	1b00      	subs	r0, r0, r4
 8000f84:	2802      	cmp	r0, #2
 8000f86:	d9f6      	bls.n	8000f76 <HAL_RCC_OscConfig+0x362>
 8000f88:	e688      	b.n	8000c9c <HAL_RCC_OscConfig+0x88>
 8000f8a:	f7ff fc31 	bl	80007f0 <HAL_GetTick>
 8000f8e:	1b80      	subs	r0, r0, r6
 8000f90:	2802      	cmp	r0, #2
 8000f92:	d9c8      	bls.n	8000f26 <HAL_RCC_OscConfig+0x312>
 8000f94:	e682      	b.n	8000c9c <HAL_RCC_OscConfig+0x88>
 8000f96:	68eb      	ldr	r3, [r5, #12]
 8000f98:	f023 0303 	bic.w	r3, r3, #3
 8000f9c:	60eb      	str	r3, [r5, #12]
 8000f9e:	68eb      	ldr	r3, [r5, #12]
 8000fa0:	f023 7388 	bic.w	r3, r3, #17825792	; 0x1100000
 8000fa4:	f423 3380 	bic.w	r3, r3, #65536	; 0x10000
 8000fa8:	60eb      	str	r3, [r5, #12]
 8000faa:	f7ff fc21 	bl	80007f0 <HAL_GetTick>
 8000fae:	4604      	mov	r4, r0
 8000fb0:	682b      	ldr	r3, [r5, #0]
 8000fb2:	019b      	lsls	r3, r3, #6
 8000fb4:	f57f ae48 	bpl.w	8000c48 <HAL_RCC_OscConfig+0x34>
 8000fb8:	f7ff fc1a 	bl	80007f0 <HAL_GetTick>
 8000fbc:	1b00      	subs	r0, r0, r4
 8000fbe:	2802      	cmp	r0, #2
 8000fc0:	d9f6      	bls.n	8000fb0 <HAL_RCC_OscConfig+0x39c>
 8000fc2:	e66b      	b.n	8000c9c <HAL_RCC_OscConfig+0x88>
 8000fc4:	2801      	cmp	r0, #1
 8000fc6:	f43f ae6a 	beq.w	8000c9e <HAL_RCC_OscConfig+0x8a>
 8000fca:	68eb      	ldr	r3, [r5, #12]
 8000fcc:	6a22      	ldr	r2, [r4, #32]
 8000fce:	f003 0103 	and.w	r1, r3, #3
 8000fd2:	4291      	cmp	r1, r2
 8000fd4:	f47f ae4b 	bne.w	8000c6e <HAL_RCC_OscConfig+0x5a>
 8000fd8:	6a61      	ldr	r1, [r4, #36]	; 0x24
 8000fda:	f003 02f0 	and.w	r2, r3, #240	; 0xf0
 8000fde:	3901      	subs	r1, #1
 8000fe0:	ebb2 1f01 	cmp.w	r2, r1, lsl #4
 8000fe4:	f47f ae43 	bne.w	8000c6e <HAL_RCC_OscConfig+0x5a>
 8000fe8:	6aa1      	ldr	r1, [r4, #40]	; 0x28
 8000fea:	f403 42fe 	and.w	r2, r3, #32512	; 0x7f00
 8000fee:	ebb2 2f01 	cmp.w	r2, r1, lsl #8
 8000ff2:	f47f ae3c 	bne.w	8000c6e <HAL_RCC_OscConfig+0x5a>
 8000ff6:	6ae1      	ldr	r1, [r4, #44]	; 0x2c
 8000ff8:	f003 4278 	and.w	r2, r3, #4160749568	; 0xf8000000
 8000ffc:	ebb2 6fc1 	cmp.w	r2, r1, lsl #27
 8001000:	f47f ae35 	bne.w	8000c6e <HAL_RCC_OscConfig+0x5a>
 8001004:	6b22      	ldr	r2, [r4, #48]	; 0x30
 8001006:	0852      	lsrs	r2, r2, #1
 8001008:	f403 01c0 	and.w	r1, r3, #6291456	; 0x600000
 800100c:	3a01      	subs	r2, #1
 800100e:	ebb1 5f42 	cmp.w	r1, r2, lsl #21
 8001012:	f47f ae2c 	bne.w	8000c6e <HAL_RCC_OscConfig+0x5a>
 8001016:	6b62      	ldr	r2, [r4, #52]	; 0x34
 8001018:	0852      	lsrs	r2, r2, #1
 800101a:	f003 63c0 	and.w	r3, r3, #100663296	; 0x6000000
 800101e:	3a01      	subs	r2, #1
 8001020:	ebb3 6f42 	cmp.w	r3, r2, lsl #25
 8001024:	f43f ae10 	beq.w	8000c48 <HAL_RCC_OscConfig+0x34>
 8001028:	e621      	b.n	8000c6e <HAL_RCC_OscConfig+0x5a>
 800102a:	bf00      	nop
 800102c:	40021000 	.word	0x40021000
 8001030:	019f800c 	.word	0x019f800c

08001034 <HAL_RCC_GetSysClockFreq>:
 8001034:	4b17      	ldr	r3, [pc, #92]	; (8001094 <HAL_RCC_GetSysClockFreq+0x60>)
 8001036:	689a      	ldr	r2, [r3, #8]
 8001038:	f002 020c 	and.w	r2, r2, #12
 800103c:	2a04      	cmp	r2, #4
 800103e:	d023      	beq.n	8001088 <HAL_RCC_GetSysClockFreq+0x54>
 8001040:	689a      	ldr	r2, [r3, #8]
 8001042:	f002 020c 	and.w	r2, r2, #12
 8001046:	2a08      	cmp	r2, #8
 8001048:	d020      	beq.n	800108c <HAL_RCC_GetSysClockFreq+0x58>
 800104a:	689a      	ldr	r2, [r3, #8]
 800104c:	f002 020c 	and.w	r2, r2, #12
 8001050:	2a0c      	cmp	r2, #12
 8001052:	d11d      	bne.n	8001090 <HAL_RCC_GetSysClockFreq+0x5c>
 8001054:	68d9      	ldr	r1, [r3, #12]
 8001056:	68da      	ldr	r2, [r3, #12]
 8001058:	68d8      	ldr	r0, [r3, #12]
 800105a:	68db      	ldr	r3, [r3, #12]
 800105c:	f001 0103 	and.w	r1, r1, #3
 8001060:	f3c3 6341 	ubfx	r3, r3, #25, #2
 8001064:	2903      	cmp	r1, #3
 8001066:	f3c2 1203 	ubfx	r2, r2, #4, #4
 800106a:	f3c0 2006 	ubfx	r0, r0, #8, #7
 800106e:	f103 0301 	add.w	r3, r3, #1
 8001072:	bf0c      	ite	eq
 8001074:	4908      	ldreq	r1, [pc, #32]	; (8001098 <HAL_RCC_GetSysClockFreq+0x64>)
 8001076:	4909      	ldrne	r1, [pc, #36]	; (800109c <HAL_RCC_GetSysClockFreq+0x68>)
 8001078:	005b      	lsls	r3, r3, #1
 800107a:	3201      	adds	r2, #1
 800107c:	fbb1 f2f2 	udiv	r2, r1, r2
 8001080:	4350      	muls	r0, r2
 8001082:	fbb0 f0f3 	udiv	r0, r0, r3
 8001086:	4770      	bx	lr
 8001088:	4804      	ldr	r0, [pc, #16]	; (800109c <HAL_RCC_GetSysClockFreq+0x68>)
 800108a:	4770      	bx	lr
 800108c:	4802      	ldr	r0, [pc, #8]	; (8001098 <HAL_RCC_GetSysClockFreq+0x64>)
 800108e:	4770      	bx	lr
 8001090:	2000      	movs	r0, #0
 8001092:	4770      	bx	lr
 8001094:	40021000 	.word	0x40021000
 8001098:	007a1200 	.word	0x007a1200
 800109c:	00f42400 	.word	0x00f42400

080010a0 <HAL_RCC_ClockConfig>:
 80010a0:	e92d 43f8 	stmdb	sp!, {r3, r4, r5, r6, r7, r8, r9, lr}
 80010a4:	460e      	mov	r6, r1
 80010a6:	4605      	mov	r5, r0
 80010a8:	b910      	cbnz	r0, 80010b0 <HAL_RCC_ClockConfig+0x10>
 80010aa:	2001      	movs	r0, #1
 80010ac:	e8bd 83f8 	ldmia.w	sp!, {r3, r4, r5, r6, r7, r8, r9, pc}
 80010b0:	4a6d      	ldr	r2, [pc, #436]	; (8001268 <HAL_RCC_ClockConfig+0x1c8>)
 80010b2:	6813      	ldr	r3, [r2, #0]
 80010b4:	f003 030f 	and.w	r3, r3, #15
 80010b8:	428b      	cmp	r3, r1
 80010ba:	d345      	bcc.n	8001148 <HAL_RCC_ClockConfig+0xa8>
 80010bc:	6829      	ldr	r1, [r5, #0]
 80010be:	f011 0701 	ands.w	r7, r1, #1
 80010c2:	d14c      	bne.n	800115e <HAL_RCC_ClockConfig+0xbe>
 80010c4:	682a      	ldr	r2, [r5, #0]
 80010c6:	0791      	lsls	r1, r2, #30
 80010c8:	f140 80a8 	bpl.w	800121c <HAL_RCC_ClockConfig+0x17c>
 80010cc:	4b67      	ldr	r3, [pc, #412]	; (800126c <HAL_RCC_ClockConfig+0x1cc>)
 80010ce:	f012 0f04 	tst.w	r2, #4
 80010d2:	bf1e      	ittt	ne
 80010d4:	6899      	ldrne	r1, [r3, #8]
 80010d6:	f441 61e0 	orrne.w	r1, r1, #1792	; 0x700
 80010da:	6099      	strne	r1, [r3, #8]
 80010dc:	0712      	lsls	r2, r2, #28
 80010de:	bf41      	itttt	mi
 80010e0:	689a      	ldrmi	r2, [r3, #8]
 80010e2:	f422 527c 	bicmi.w	r2, r2, #16128	; 0x3f00
 80010e6:	f442 62e0 	orrmi.w	r2, r2, #1792	; 0x700
 80010ea:	609a      	strmi	r2, [r3, #8]
 80010ec:	689a      	ldr	r2, [r3, #8]
 80010ee:	68a9      	ldr	r1, [r5, #8]
 80010f0:	f022 02f0 	bic.w	r2, r2, #240	; 0xf0
 80010f4:	430a      	orrs	r2, r1
 80010f6:	609a      	str	r2, [r3, #8]
 80010f8:	4c5b      	ldr	r4, [pc, #364]	; (8001268 <HAL_RCC_ClockConfig+0x1c8>)
 80010fa:	6823      	ldr	r3, [r4, #0]
 80010fc:	f003 030f 	and.w	r3, r3, #15
 8001100:	42b3      	cmp	r3, r6
 8001102:	f200 8093 	bhi.w	800122c <HAL_RCC_ClockConfig+0x18c>
 8001106:	682a      	ldr	r2, [r5, #0]
 8001108:	4c58      	ldr	r4, [pc, #352]	; (800126c <HAL_RCC_ClockConfig+0x1cc>)
 800110a:	f012 0f04 	tst.w	r2, #4
 800110e:	f040 80a3 	bne.w	8001258 <HAL_RCC_ClockConfig+0x1b8>
 8001112:	0713      	lsls	r3, r2, #28
 8001114:	d506      	bpl.n	8001124 <HAL_RCC_ClockConfig+0x84>
 8001116:	68a3      	ldr	r3, [r4, #8]
 8001118:	692a      	ldr	r2, [r5, #16]
 800111a:	f423 5360 	bic.w	r3, r3, #14336	; 0x3800
 800111e:	ea43 03c2 	orr.w	r3, r3, r2, lsl #3
 8001122:	60a3      	str	r3, [r4, #8]
 8001124:	f7ff ff86 	bl	8001034 <HAL_RCC_GetSysClockFreq>
 8001128:	68a3      	ldr	r3, [r4, #8]
 800112a:	4a51      	ldr	r2, [pc, #324]	; (8001270 <HAL_RCC_ClockConfig+0x1d0>)
 800112c:	f3c3 1303 	ubfx	r3, r3, #4, #4
 8001130:	5cd3      	ldrb	r3, [r2, r3]
 8001132:	f003 031f 	and.w	r3, r3, #31
 8001136:	40d8      	lsrs	r0, r3
 8001138:	4b4e      	ldr	r3, [pc, #312]	; (8001274 <HAL_RCC_ClockConfig+0x1d4>)
 800113a:	6018      	str	r0, [r3, #0]
 800113c:	4b4e      	ldr	r3, [pc, #312]	; (8001278 <HAL_RCC_ClockConfig+0x1d8>)
 800113e:	6818      	ldr	r0, [r3, #0]
 8001140:	e8bd 43f8 	ldmia.w	sp!, {r3, r4, r5, r6, r7, r8, r9, lr}
 8001144:	f7ff bb12 	b.w	800076c <HAL_InitTick>
 8001148:	6813      	ldr	r3, [r2, #0]
 800114a:	f023 030f 	bic.w	r3, r3, #15
 800114e:	430b      	orrs	r3, r1
 8001150:	6013      	str	r3, [r2, #0]
 8001152:	6813      	ldr	r3, [r2, #0]
 8001154:	f003 030f 	and.w	r3, r3, #15
 8001158:	428b      	cmp	r3, r1
 800115a:	d1a6      	bne.n	80010aa <HAL_RCC_ClockConfig+0xa>
 800115c:	e7ae      	b.n	80010bc <HAL_RCC_ClockConfig+0x1c>
 800115e:	686b      	ldr	r3, [r5, #4]
 8001160:	4c42      	ldr	r4, [pc, #264]	; (800126c <HAL_RCC_ClockConfig+0x1cc>)
 8001162:	2b03      	cmp	r3, #3
 8001164:	d14a      	bne.n	80011fc <HAL_RCC_ClockConfig+0x15c>
 8001166:	6823      	ldr	r3, [r4, #0]
 8001168:	019f      	lsls	r7, r3, #6
 800116a:	d59e      	bpl.n	80010aa <HAL_RCC_ClockConfig+0xa>
 800116c:	68e3      	ldr	r3, [r4, #12]
 800116e:	68e2      	ldr	r2, [r4, #12]
 8001170:	f003 0303 	and.w	r3, r3, #3
 8001174:	2b03      	cmp	r3, #3
 8001176:	68e3      	ldr	r3, [r4, #12]
 8001178:	bf0c      	ite	eq
 800117a:	4840      	ldreq	r0, [pc, #256]	; (800127c <HAL_RCC_ClockConfig+0x1dc>)
 800117c:	4840      	ldrne	r0, [pc, #256]	; (8001280 <HAL_RCC_ClockConfig+0x1e0>)
 800117e:	f3c2 1203 	ubfx	r2, r2, #4, #4
 8001182:	f3c3 2306 	ubfx	r3, r3, #8, #7
 8001186:	3201      	adds	r2, #1
 8001188:	fbb0 f2f2 	udiv	r2, r0, r2
 800118c:	4353      	muls	r3, r2
 800118e:	68e2      	ldr	r2, [r4, #12]
 8001190:	f3c2 6241 	ubfx	r2, r2, #25, #2
 8001194:	3201      	adds	r2, #1
 8001196:	0052      	lsls	r2, r2, #1
 8001198:	fbb3 f3f2 	udiv	r3, r3, r2
 800119c:	4a39      	ldr	r2, [pc, #228]	; (8001284 <HAL_RCC_ClockConfig+0x1e4>)
 800119e:	4293      	cmp	r3, r2
 80011a0:	d81b      	bhi.n	80011da <HAL_RCC_ClockConfig+0x13a>
 80011a2:	2700      	movs	r7, #0
 80011a4:	68a3      	ldr	r3, [r4, #8]
 80011a6:	686a      	ldr	r2, [r5, #4]
 80011a8:	f023 0303 	bic.w	r3, r3, #3
 80011ac:	4313      	orrs	r3, r2
 80011ae:	60a3      	str	r3, [r4, #8]
 80011b0:	f7ff fb1e 	bl	80007f0 <HAL_GetTick>
 80011b4:	f241 3988 	movw	r9, #5000	; 0x1388
 80011b8:	4680      	mov	r8, r0
 80011ba:	68a3      	ldr	r3, [r4, #8]
 80011bc:	686a      	ldr	r2, [r5, #4]
 80011be:	f003 030c 	and.w	r3, r3, #12
 80011c2:	ebb3 0f82 	cmp.w	r3, r2, lsl #2
 80011c6:	f43f af7d 	beq.w	80010c4 <HAL_RCC_ClockConfig+0x24>
 80011ca:	f7ff fb11 	bl	80007f0 <HAL_GetTick>
 80011ce:	eba0 0008 	sub.w	r0, r0, r8
 80011d2:	4548      	cmp	r0, r9
 80011d4:	d9f1      	bls.n	80011ba <HAL_RCC_ClockConfig+0x11a>
 80011d6:	2003      	movs	r0, #3
 80011d8:	e768      	b.n	80010ac <HAL_RCC_ClockConfig+0xc>
 80011da:	68a3      	ldr	r3, [r4, #8]
 80011dc:	f013 0ff0 	tst.w	r3, #240	; 0xf0
 80011e0:	d004      	beq.n	80011ec <HAL_RCC_ClockConfig+0x14c>
 80011e2:	0788      	lsls	r0, r1, #30
 80011e4:	d5dd      	bpl.n	80011a2 <HAL_RCC_ClockConfig+0x102>
 80011e6:	68ab      	ldr	r3, [r5, #8]
 80011e8:	2b00      	cmp	r3, #0
 80011ea:	d1da      	bne.n	80011a2 <HAL_RCC_ClockConfig+0x102>
 80011ec:	68a3      	ldr	r3, [r4, #8]
 80011ee:	f023 03f0 	bic.w	r3, r3, #240	; 0xf0
 80011f2:	f043 0380 	orr.w	r3, r3, #128	; 0x80
 80011f6:	60a3      	str	r3, [r4, #8]
 80011f8:	2780      	movs	r7, #128	; 0x80
 80011fa:	e7d3      	b.n	80011a4 <HAL_RCC_ClockConfig+0x104>
 80011fc:	2b02      	cmp	r3, #2
 80011fe:	6823      	ldr	r3, [r4, #0]
 8001200:	d109      	bne.n	8001216 <HAL_RCC_ClockConfig+0x176>
 8001202:	f413 3f00 	tst.w	r3, #131072	; 0x20000
 8001206:	f43f af50 	beq.w	80010aa <HAL_RCC_ClockConfig+0xa>
 800120a:	f7ff ff13 	bl	8001034 <HAL_RCC_GetSysClockFreq>
 800120e:	4b1d      	ldr	r3, [pc, #116]	; (8001284 <HAL_RCC_ClockConfig+0x1e4>)
 8001210:	4298      	cmp	r0, r3
 8001212:	d9c6      	bls.n	80011a2 <HAL_RCC_ClockConfig+0x102>
 8001214:	e7ea      	b.n	80011ec <HAL_RCC_ClockConfig+0x14c>
 8001216:	f413 6f80 	tst.w	r3, #1024	; 0x400
 800121a:	e7f4      	b.n	8001206 <HAL_RCC_ClockConfig+0x166>
 800121c:	2f80      	cmp	r7, #128	; 0x80
 800121e:	bf01      	itttt	eq
 8001220:	4a12      	ldreq	r2, [pc, #72]	; (800126c <HAL_RCC_ClockConfig+0x1cc>)
 8001222:	6893      	ldreq	r3, [r2, #8]
 8001224:	f023 03f0 	biceq.w	r3, r3, #240	; 0xf0
 8001228:	6093      	streq	r3, [r2, #8]
 800122a:	e765      	b.n	80010f8 <HAL_RCC_ClockConfig+0x58>
 800122c:	6823      	ldr	r3, [r4, #0]
 800122e:	f023 030f 	bic.w	r3, r3, #15
 8001232:	4333      	orrs	r3, r6
 8001234:	6023      	str	r3, [r4, #0]
 8001236:	f7ff fadb 	bl	80007f0 <HAL_GetTick>
 800123a:	f241 3888 	movw	r8, #5000	; 0x1388
 800123e:	4607      	mov	r7, r0
 8001240:	6823      	ldr	r3, [r4, #0]
 8001242:	f003 030f 	and.w	r3, r3, #15
 8001246:	42b3      	cmp	r3, r6
 8001248:	f43f af5d 	beq.w	8001106 <HAL_RCC_ClockConfig+0x66>
 800124c:	f7ff fad0 	bl	80007f0 <HAL_GetTick>
 8001250:	1bc0      	subs	r0, r0, r7
 8001252:	4540      	cmp	r0, r8
 8001254:	d9f4      	bls.n	8001240 <HAL_RCC_ClockConfig+0x1a0>
 8001256:	e7be      	b.n	80011d6 <HAL_RCC_ClockConfig+0x136>
 8001258:	68a3      	ldr	r3, [r4, #8]
 800125a:	68e9      	ldr	r1, [r5, #12]
 800125c:	f423 63e0 	bic.w	r3, r3, #1792	; 0x700
 8001260:	430b      	orrs	r3, r1
 8001262:	60a3      	str	r3, [r4, #8]
 8001264:	e755      	b.n	8001112 <HAL_RCC_ClockConfig+0x72>
 8001266:	bf00      	nop
 8001268:	40022000 	.word	0x40022000
 800126c:	40021000 	.word	0x40021000
 8001270:	08002e8c 	.word	0x08002e8c
 8001274:	20000000 	.word	0x20000000
 8001278:	20000008 	.word	0x20000008
 800127c:	007a1200 	.word	0x007a1200
 8001280:	00f42400 	.word	0x00f42400
 8001284:	04c4b400 	.word	0x04c4b400

08001288 <HAL_RCCEx_PeriphCLKConfig>:
 8001288:	e92d 41f3 	stmdb	sp!, {r0, r1, r4, r5, r6, r7, r8, lr}
 800128c:	4604      	mov	r4, r0
 800128e:	6800      	ldr	r0, [r0, #0]
 8001290:	f410 2000 	ands.w	r0, r0, #524288	; 0x80000
 8001294:	d039      	beq.n	800130a <HAL_RCCEx_PeriphCLKConfig+0x82>
 8001296:	4d99      	ldr	r5, [pc, #612]	; (80014fc <HAL_RCCEx_PeriphCLKConfig+0x274>)
 8001298:	6dab      	ldr	r3, [r5, #88]	; 0x58
 800129a:	00d8      	lsls	r0, r3, #3
 800129c:	d427      	bmi.n	80012ee <HAL_RCCEx_PeriphCLKConfig+0x66>
 800129e:	6dab      	ldr	r3, [r5, #88]	; 0x58
 80012a0:	f043 5380 	orr.w	r3, r3, #268435456	; 0x10000000
 80012a4:	65ab      	str	r3, [r5, #88]	; 0x58
 80012a6:	6dab      	ldr	r3, [r5, #88]	; 0x58
 80012a8:	f003 5380 	and.w	r3, r3, #268435456	; 0x10000000
 80012ac:	9301      	str	r3, [sp, #4]
 80012ae:	9b01      	ldr	r3, [sp, #4]
 80012b0:	2601      	movs	r6, #1
 80012b2:	4f93      	ldr	r7, [pc, #588]	; (8001500 <HAL_RCCEx_PeriphCLKConfig+0x278>)
 80012b4:	683b      	ldr	r3, [r7, #0]
 80012b6:	f443 7380 	orr.w	r3, r3, #256	; 0x100
 80012ba:	603b      	str	r3, [r7, #0]
 80012bc:	f7ff fa98 	bl	80007f0 <HAL_GetTick>
 80012c0:	4680      	mov	r8, r0
 80012c2:	683b      	ldr	r3, [r7, #0]
 80012c4:	05d9      	lsls	r1, r3, #23
 80012c6:	d514      	bpl.n	80012f2 <HAL_RCCEx_PeriphCLKConfig+0x6a>
 80012c8:	f8d5 3090 	ldr.w	r3, [r5, #144]	; 0x90
 80012cc:	f413 7340 	ands.w	r3, r3, #768	; 0x300
 80012d0:	d003      	beq.n	80012da <HAL_RCCEx_PeriphCLKConfig+0x52>
 80012d2:	6c22      	ldr	r2, [r4, #64]	; 0x40
 80012d4:	4293      	cmp	r3, r2
 80012d6:	f040 80eb 	bne.w	80014b0 <HAL_RCCEx_PeriphCLKConfig+0x228>
 80012da:	f8d5 3090 	ldr.w	r3, [r5, #144]	; 0x90
 80012de:	6c22      	ldr	r2, [r4, #64]	; 0x40
 80012e0:	f423 7340 	bic.w	r3, r3, #768	; 0x300
 80012e4:	4313      	orrs	r3, r2
 80012e6:	f8c5 3090 	str.w	r3, [r5, #144]	; 0x90
 80012ea:	2000      	movs	r0, #0
 80012ec:	e008      	b.n	8001300 <HAL_RCCEx_PeriphCLKConfig+0x78>
 80012ee:	2600      	movs	r6, #0
 80012f0:	e7df      	b.n	80012b2 <HAL_RCCEx_PeriphCLKConfig+0x2a>
 80012f2:	f7ff fa7d 	bl	80007f0 <HAL_GetTick>
 80012f6:	eba0 0008 	sub.w	r0, r0, r8
 80012fa:	2802      	cmp	r0, #2
 80012fc:	d9e1      	bls.n	80012c2 <HAL_RCCEx_PeriphCLKConfig+0x3a>
 80012fe:	2003      	movs	r0, #3
 8001300:	b11e      	cbz	r6, 800130a <HAL_RCCEx_PeriphCLKConfig+0x82>
 8001302:	6dab      	ldr	r3, [r5, #88]	; 0x58
 8001304:	f023 5380 	bic.w	r3, r3, #268435456	; 0x10000000
 8001308:	65ab      	str	r3, [r5, #88]	; 0x58
 800130a:	6823      	ldr	r3, [r4, #0]
 800130c:	07de      	lsls	r6, r3, #31
 800130e:	d508      	bpl.n	8001322 <HAL_RCCEx_PeriphCLKConfig+0x9a>
 8001310:	497a      	ldr	r1, [pc, #488]	; (80014fc <HAL_RCCEx_PeriphCLKConfig+0x274>)
 8001312:	6865      	ldr	r5, [r4, #4]
 8001314:	f8d1 2088 	ldr.w	r2, [r1, #136]	; 0x88
 8001318:	f022 0203 	bic.w	r2, r2, #3
 800131c:	432a      	orrs	r2, r5
 800131e:	f8c1 2088 	str.w	r2, [r1, #136]	; 0x88
 8001322:	079d      	lsls	r5, r3, #30
 8001324:	d508      	bpl.n	8001338 <HAL_RCCEx_PeriphCLKConfig+0xb0>
 8001326:	4975      	ldr	r1, [pc, #468]	; (80014fc <HAL_RCCEx_PeriphCLKConfig+0x274>)
 8001328:	68a5      	ldr	r5, [r4, #8]
 800132a:	f8d1 2088 	ldr.w	r2, [r1, #136]	; 0x88
 800132e:	f022 020c 	bic.w	r2, r2, #12
 8001332:	432a      	orrs	r2, r5
 8001334:	f8c1 2088 	str.w	r2, [r1, #136]	; 0x88
 8001338:	0759      	lsls	r1, r3, #29
 800133a:	d508      	bpl.n	800134e <HAL_RCCEx_PeriphCLKConfig+0xc6>
 800133c:	496f      	ldr	r1, [pc, #444]	; (80014fc <HAL_RCCEx_PeriphCLKConfig+0x274>)
 800133e:	68e5      	ldr	r5, [r4, #12]
 8001340:	f8d1 2088 	ldr.w	r2, [r1, #136]	; 0x88
 8001344:	f022 0230 	bic.w	r2, r2, #48	; 0x30
 8001348:	432a      	orrs	r2, r5
 800134a:	f8c1 2088 	str.w	r2, [r1, #136]	; 0x88
 800134e:	071a      	lsls	r2, r3, #28
 8001350:	d508      	bpl.n	8001364 <HAL_RCCEx_PeriphCLKConfig+0xdc>
 8001352:	496a      	ldr	r1, [pc, #424]	; (80014fc <HAL_RCCEx_PeriphCLKConfig+0x274>)
 8001354:	6925      	ldr	r5, [r4, #16]
 8001356:	f8d1 2088 	ldr.w	r2, [r1, #136]	; 0x88
 800135a:	f022 02c0 	bic.w	r2, r2, #192	; 0xc0
 800135e:	432a      	orrs	r2, r5
 8001360:	f8c1 2088 	str.w	r2, [r1, #136]	; 0x88
 8001364:	069f      	lsls	r7, r3, #26
 8001366:	d508      	bpl.n	800137a <HAL_RCCEx_PeriphCLKConfig+0xf2>
 8001368:	4964      	ldr	r1, [pc, #400]	; (80014fc <HAL_RCCEx_PeriphCLKConfig+0x274>)
 800136a:	6965      	ldr	r5, [r4, #20]
 800136c:	f8d1 2088 	ldr.w	r2, [r1, #136]	; 0x88
 8001370:	f422 6240 	bic.w	r2, r2, #3072	; 0xc00
 8001374:	432a      	orrs	r2, r5
 8001376:	f8c1 2088 	str.w	r2, [r1, #136]	; 0x88
 800137a:	065e      	lsls	r6, r3, #25
 800137c:	d508      	bpl.n	8001390 <HAL_RCCEx_PeriphCLKConfig+0x108>
 800137e:	495f      	ldr	r1, [pc, #380]	; (80014fc <HAL_RCCEx_PeriphCLKConfig+0x274>)
 8001380:	69a5      	ldr	r5, [r4, #24]
 8001382:	f8d1 2088 	ldr.w	r2, [r1, #136]	; 0x88
 8001386:	f422 5240 	bic.w	r2, r2, #12288	; 0x3000
 800138a:	432a      	orrs	r2, r5
 800138c:	f8c1 2088 	str.w	r2, [r1, #136]	; 0x88
 8001390:	061d      	lsls	r5, r3, #24
 8001392:	d508      	bpl.n	80013a6 <HAL_RCCEx_PeriphCLKConfig+0x11e>
 8001394:	4959      	ldr	r1, [pc, #356]	; (80014fc <HAL_RCCEx_PeriphCLKConfig+0x274>)
 8001396:	69e5      	ldr	r5, [r4, #28]
 8001398:	f8d1 2088 	ldr.w	r2, [r1, #136]	; 0x88
 800139c:	f422 4240 	bic.w	r2, r2, #49152	; 0xc000
 80013a0:	432a      	orrs	r2, r5
 80013a2:	f8c1 2088 	str.w	r2, [r1, #136]	; 0x88
 80013a6:	05d9      	lsls	r1, r3, #23
 80013a8:	d508      	bpl.n	80013bc <HAL_RCCEx_PeriphCLKConfig+0x134>
 80013aa:	4954      	ldr	r1, [pc, #336]	; (80014fc <HAL_RCCEx_PeriphCLKConfig+0x274>)
 80013ac:	6a25      	ldr	r5, [r4, #32]
 80013ae:	f8d1 2088 	ldr.w	r2, [r1, #136]	; 0x88
 80013b2:	f422 3240 	bic.w	r2, r2, #196608	; 0x30000
 80013b6:	432a      	orrs	r2, r5
 80013b8:	f8c1 2088 	str.w	r2, [r1, #136]	; 0x88
 80013bc:	059a      	lsls	r2, r3, #22
 80013be:	d508      	bpl.n	80013d2 <HAL_RCCEx_PeriphCLKConfig+0x14a>
 80013c0:	494e      	ldr	r1, [pc, #312]	; (80014fc <HAL_RCCEx_PeriphCLKConfig+0x274>)
 80013c2:	6a65      	ldr	r5, [r4, #36]	; 0x24
 80013c4:	f8d1 2088 	ldr.w	r2, [r1, #136]	; 0x88
 80013c8:	f422 2240 	bic.w	r2, r2, #786432	; 0xc0000
 80013cc:	432a      	orrs	r2, r5
 80013ce:	f8c1 2088 	str.w	r2, [r1, #136]	; 0x88
 80013d2:	055f      	lsls	r7, r3, #21
 80013d4:	d50f      	bpl.n	80013f6 <HAL_RCCEx_PeriphCLKConfig+0x16e>
 80013d6:	4949      	ldr	r1, [pc, #292]	; (80014fc <HAL_RCCEx_PeriphCLKConfig+0x274>)
 80013d8:	6aa5      	ldr	r5, [r4, #40]	; 0x28
 80013da:	f8d1 2088 	ldr.w	r2, [r1, #136]	; 0x88
 80013de:	f422 1240 	bic.w	r2, r2, #3145728	; 0x300000
 80013e2:	432a      	orrs	r2, r5
 80013e4:	f8c1 2088 	str.w	r2, [r1, #136]	; 0x88
 80013e8:	f5b5 1f80 	cmp.w	r5, #1048576	; 0x100000
 80013ec:	bf02      	ittt	eq
 80013ee:	68ca      	ldreq	r2, [r1, #12]
 80013f0:	f442 1280 	orreq.w	r2, r2, #1048576	; 0x100000
 80013f4:	60ca      	streq	r2, [r1, #12]
 80013f6:	051e      	lsls	r6, r3, #20
 80013f8:	d50f      	bpl.n	800141a <HAL_RCCEx_PeriphCLKConfig+0x192>
 80013fa:	4940      	ldr	r1, [pc, #256]	; (80014fc <HAL_RCCEx_PeriphCLKConfig+0x274>)
 80013fc:	6ae5      	ldr	r5, [r4, #44]	; 0x2c
 80013fe:	f8d1 2088 	ldr.w	r2, [r1, #136]	; 0x88
 8001402:	f422 0240 	bic.w	r2, r2, #12582912	; 0xc00000
 8001406:	432a      	orrs	r2, r5
 8001408:	f8c1 2088 	str.w	r2, [r1, #136]	; 0x88
 800140c:	f5b5 0f80 	cmp.w	r5, #4194304	; 0x400000
 8001410:	bf02      	ittt	eq
 8001412:	68ca      	ldreq	r2, [r1, #12]
 8001414:	f442 1280 	orreq.w	r2, r2, #1048576	; 0x100000
 8001418:	60ca      	streq	r2, [r1, #12]
 800141a:	04dd      	lsls	r5, r3, #19
 800141c:	d50f      	bpl.n	800143e <HAL_RCCEx_PeriphCLKConfig+0x1b6>
 800141e:	4937      	ldr	r1, [pc, #220]	; (80014fc <HAL_RCCEx_PeriphCLKConfig+0x274>)
 8001420:	6b25      	ldr	r5, [r4, #48]	; 0x30
 8001422:	f8d1 2088 	ldr.w	r2, [r1, #136]	; 0x88
 8001426:	f022 7240 	bic.w	r2, r2, #50331648	; 0x3000000
 800142a:	432a      	orrs	r2, r5
 800142c:	f8c1 2088 	str.w	r2, [r1, #136]	; 0x88
 8001430:	f1b5 7f80 	cmp.w	r5, #16777216	; 0x1000000
 8001434:	bf02      	ittt	eq
 8001436:	68ca      	ldreq	r2, [r1, #12]
 8001438:	f442 1280 	orreq.w	r2, r2, #1048576	; 0x100000
 800143c:	60ca      	streq	r2, [r1, #12]
 800143e:	0499      	lsls	r1, r3, #18
 8001440:	d50f      	bpl.n	8001462 <HAL_RCCEx_PeriphCLKConfig+0x1da>
 8001442:	492e      	ldr	r1, [pc, #184]	; (80014fc <HAL_RCCEx_PeriphCLKConfig+0x274>)
 8001444:	6b65      	ldr	r5, [r4, #52]	; 0x34
 8001446:	f8d1 2088 	ldr.w	r2, [r1, #136]	; 0x88
 800144a:	f022 6240 	bic.w	r2, r2, #201326592	; 0xc000000
 800144e:	432a      	orrs	r2, r5
 8001450:	f8c1 2088 	str.w	r2, [r1, #136]	; 0x88
 8001454:	f1b5 6f00 	cmp.w	r5, #134217728	; 0x8000000
 8001458:	bf02      	ittt	eq
 800145a:	68ca      	ldreq	r2, [r1, #12]
 800145c:	f442 1280 	orreq.w	r2, r2, #1048576	; 0x100000
 8001460:	60ca      	streq	r2, [r1, #12]
 8001462:	045a      	lsls	r2, r3, #17
 8001464:	d50f      	bpl.n	8001486 <HAL_RCCEx_PeriphCLKConfig+0x1fe>
 8001466:	4925      	ldr	r1, [pc, #148]	; (80014fc <HAL_RCCEx_PeriphCLKConfig+0x274>)
 8001468:	6ba5      	ldr	r5, [r4, #56]	; 0x38
 800146a:	f8d1 2088 	ldr.w	r2, [r1, #136]	; 0x88
 800146e:	f022 6240 	bic.w	r2, r2, #201326592	; 0xc000000
 8001472:	432a      	orrs	r2, r5
 8001474:	f8c1 2088 	str.w	r2, [r1, #136]	; 0x88
 8001478:	f1b5 6f00 	cmp.w	r5, #134217728	; 0x8000000
 800147c:	bf02      	ittt	eq
 800147e:	68ca      	ldreq	r2, [r1, #12]
 8001480:	f442 1280 	orreq.w	r2, r2, #1048576	; 0x100000
 8001484:	60ca      	streq	r2, [r1, #12]
 8001486:	041b      	lsls	r3, r3, #16
 8001488:	d50f      	bpl.n	80014aa <HAL_RCCEx_PeriphCLKConfig+0x222>
 800148a:	4a1c      	ldr	r2, [pc, #112]	; (80014fc <HAL_RCCEx_PeriphCLKConfig+0x274>)
 800148c:	6be1      	ldr	r1, [r4, #60]	; 0x3c
 800148e:	f8d2 3088 	ldr.w	r3, [r2, #136]	; 0x88
 8001492:	f023 5340 	bic.w	r3, r3, #805306368	; 0x30000000
 8001496:	430b      	orrs	r3, r1
 8001498:	f1b1 5f80 	cmp.w	r1, #268435456	; 0x10000000
 800149c:	f8c2 3088 	str.w	r3, [r2, #136]	; 0x88
 80014a0:	d103      	bne.n	80014aa <HAL_RCCEx_PeriphCLKConfig+0x222>
 80014a2:	68d3      	ldr	r3, [r2, #12]
 80014a4:	f443 3380 	orr.w	r3, r3, #65536	; 0x10000
 80014a8:	60d3      	str	r3, [r2, #12]
 80014aa:	b002      	add	sp, #8
 80014ac:	e8bd 81f0 	ldmia.w	sp!, {r4, r5, r6, r7, r8, pc}
 80014b0:	f8d5 2090 	ldr.w	r2, [r5, #144]	; 0x90
 80014b4:	f8d5 3090 	ldr.w	r3, [r5, #144]	; 0x90
 80014b8:	f443 3380 	orr.w	r3, r3, #65536	; 0x10000
 80014bc:	f8c5 3090 	str.w	r3, [r5, #144]	; 0x90
 80014c0:	f8d5 3090 	ldr.w	r3, [r5, #144]	; 0x90
 80014c4:	f422 7140 	bic.w	r1, r2, #768	; 0x300
 80014c8:	f423 3380 	bic.w	r3, r3, #65536	; 0x10000
 80014cc:	07d2      	lsls	r2, r2, #31
 80014ce:	f8c5 3090 	str.w	r3, [r5, #144]	; 0x90
 80014d2:	f8c5 1090 	str.w	r1, [r5, #144]	; 0x90
 80014d6:	f57f af00 	bpl.w	80012da <HAL_RCCEx_PeriphCLKConfig+0x52>
 80014da:	f7ff f989 	bl	80007f0 <HAL_GetTick>
 80014de:	f241 3888 	movw	r8, #5000	; 0x1388
 80014e2:	4607      	mov	r7, r0
 80014e4:	f8d5 3090 	ldr.w	r3, [r5, #144]	; 0x90
 80014e8:	079b      	lsls	r3, r3, #30
 80014ea:	f53f aef6 	bmi.w	80012da <HAL_RCCEx_PeriphCLKConfig+0x52>
 80014ee:	f7ff f97f 	bl	80007f0 <HAL_GetTick>
 80014f2:	1bc0      	subs	r0, r0, r7
 80014f4:	4540      	cmp	r0, r8
 80014f6:	d9f5      	bls.n	80014e4 <HAL_RCCEx_PeriphCLKConfig+0x25c>
 80014f8:	e701      	b.n	80012fe <HAL_RCCEx_PeriphCLKConfig+0x76>
 80014fa:	bf00      	nop
 80014fc:	40021000 	.word	0x40021000
 8001500:	40007000 	.word	0x40007000

08001504 <HAL_SPI_Init>:
 8001504:	b570      	push	{r4, r5, r6, lr}
 8001506:	4604      	mov	r4, r0
 8001508:	2800      	cmp	r0, #0
 800150a:	d063      	beq.n	80015d4 <HAL_SPI_Init+0xd0>
 800150c:	6a43      	ldr	r3, [r0, #36]	; 0x24
 800150e:	2b00      	cmp	r3, #0
 8001510:	d15c      	bne.n	80015cc <HAL_SPI_Init+0xc8>
 8001512:	6842      	ldr	r2, [r0, #4]
 8001514:	f5b2 7f82 	cmp.w	r2, #260	; 0x104
 8001518:	d000      	beq.n	800151c <HAL_SPI_Init+0x18>
 800151a:	61c3      	str	r3, [r0, #28]
 800151c:	2300      	movs	r3, #0
 800151e:	62a3      	str	r3, [r4, #40]	; 0x28
 8001520:	f894 305d 	ldrb.w	r3, [r4, #93]	; 0x5d
 8001524:	f003 02ff 	and.w	r2, r3, #255	; 0xff
 8001528:	b923      	cbnz	r3, 8001534 <HAL_SPI_Init+0x30>
 800152a:	f884 205c 	strb.w	r2, [r4, #92]	; 0x5c
 800152e:	4620      	mov	r0, r4
 8001530:	f7ff f812 	bl	8000558 <HAL_SPI_MspInit>
 8001534:	6822      	ldr	r2, [r4, #0]
 8001536:	68e0      	ldr	r0, [r4, #12]
 8001538:	2302      	movs	r3, #2
 800153a:	f884 305d 	strb.w	r3, [r4, #93]	; 0x5d
 800153e:	6813      	ldr	r3, [r2, #0]
 8001540:	f5b0 6fe0 	cmp.w	r0, #1792	; 0x700
 8001544:	f023 0340 	bic.w	r3, r3, #64	; 0x40
 8001548:	6013      	str	r3, [r2, #0]
 800154a:	f04f 0300 	mov.w	r3, #0
 800154e:	d843      	bhi.n	80015d8 <HAL_SPI_Init+0xd4>
 8001550:	f44f 5580 	mov.w	r5, #4096	; 0x1000
 8001554:	d000      	beq.n	8001558 <HAL_SPI_Init+0x54>
 8001556:	62a3      	str	r3, [r4, #40]	; 0x28
 8001558:	6863      	ldr	r3, [r4, #4]
 800155a:	68a6      	ldr	r6, [r4, #8]
 800155c:	69a1      	ldr	r1, [r4, #24]
 800155e:	f406 4604 	and.w	r6, r6, #33792	; 0x8400
 8001562:	f403 7382 	and.w	r3, r3, #260	; 0x104
 8001566:	4333      	orrs	r3, r6
 8001568:	6926      	ldr	r6, [r4, #16]
 800156a:	f006 0602 	and.w	r6, r6, #2
 800156e:	4333      	orrs	r3, r6
 8001570:	6966      	ldr	r6, [r4, #20]
 8001572:	f006 0601 	and.w	r6, r6, #1
 8001576:	4333      	orrs	r3, r6
 8001578:	f401 7600 	and.w	r6, r1, #512	; 0x200
 800157c:	4333      	orrs	r3, r6
 800157e:	69e6      	ldr	r6, [r4, #28]
 8001580:	f006 0638 	and.w	r6, r6, #56	; 0x38
 8001584:	4333      	orrs	r3, r6
 8001586:	6a26      	ldr	r6, [r4, #32]
 8001588:	f006 0680 	and.w	r6, r6, #128	; 0x80
 800158c:	4333      	orrs	r3, r6
 800158e:	6aa6      	ldr	r6, [r4, #40]	; 0x28
 8001590:	f406 5600 	and.w	r6, r6, #8192	; 0x2000
 8001594:	4333      	orrs	r3, r6
 8001596:	6013      	str	r3, [r2, #0]
 8001598:	6b66      	ldr	r6, [r4, #52]	; 0x34
 800159a:	6a63      	ldr	r3, [r4, #36]	; 0x24
 800159c:	f006 0608 	and.w	r6, r6, #8
 80015a0:	f003 0310 	and.w	r3, r3, #16
 80015a4:	4333      	orrs	r3, r6
 80015a6:	f400 6070 	and.w	r0, r0, #3840	; 0xf00
 80015aa:	0c09      	lsrs	r1, r1, #16
 80015ac:	4318      	orrs	r0, r3
 80015ae:	f001 0104 	and.w	r1, r1, #4
 80015b2:	4301      	orrs	r1, r0
 80015b4:	430d      	orrs	r5, r1
 80015b6:	6055      	str	r5, [r2, #4]
 80015b8:	69d3      	ldr	r3, [r2, #28]
 80015ba:	f423 6300 	bic.w	r3, r3, #2048	; 0x800
 80015be:	61d3      	str	r3, [r2, #28]
 80015c0:	2000      	movs	r0, #0
 80015c2:	2301      	movs	r3, #1
 80015c4:	6620      	str	r0, [r4, #96]	; 0x60
 80015c6:	f884 305d 	strb.w	r3, [r4, #93]	; 0x5d
 80015ca:	bd70      	pop	{r4, r5, r6, pc}
 80015cc:	2300      	movs	r3, #0
 80015ce:	e9c0 3304 	strd	r3, r3, [r0, #16]
 80015d2:	e7a3      	b.n	800151c <HAL_SPI_Init+0x18>
 80015d4:	2001      	movs	r0, #1
 80015d6:	e7f8      	b.n	80015ca <HAL_SPI_Init+0xc6>
 80015d8:	461d      	mov	r5, r3
 80015da:	f5b0 6f70 	cmp.w	r0, #3840	; 0xf00
 80015de:	e7b9      	b.n	8001554 <HAL_SPI_Init+0x50>

080015e0 <TIM_OC1_SetConfig>:
 80015e0:	6a03      	ldr	r3, [r0, #32]
 80015e2:	f023 0301 	bic.w	r3, r3, #1
 80015e6:	6203      	str	r3, [r0, #32]
 80015e8:	6a03      	ldr	r3, [r0, #32]
 80015ea:	b570      	push	{r4, r5, r6, lr}
 80015ec:	6844      	ldr	r4, [r0, #4]
 80015ee:	6982      	ldr	r2, [r0, #24]
 80015f0:	680d      	ldr	r5, [r1, #0]
 80015f2:	f422 3280 	bic.w	r2, r2, #65536	; 0x10000
 80015f6:	f022 0273 	bic.w	r2, r2, #115	; 0x73
 80015fa:	432a      	orrs	r2, r5
 80015fc:	688d      	ldr	r5, [r1, #8]
 80015fe:	f023 0302 	bic.w	r3, r3, #2
 8001602:	432b      	orrs	r3, r5
 8001604:	4d1b      	ldr	r5, [pc, #108]	; (8001674 <TIM_OC1_SetConfig+0x94>)
 8001606:	42a8      	cmp	r0, r5
 8001608:	d00f      	beq.n	800162a <TIM_OC1_SetConfig+0x4a>
 800160a:	f505 6500 	add.w	r5, r5, #2048	; 0x800
 800160e:	42a8      	cmp	r0, r5
 8001610:	d00b      	beq.n	800162a <TIM_OC1_SetConfig+0x4a>
 8001612:	f505 6540 	add.w	r5, r5, #3072	; 0xc00
 8001616:	42a8      	cmp	r0, r5
 8001618:	d007      	beq.n	800162a <TIM_OC1_SetConfig+0x4a>
 800161a:	f505 6580 	add.w	r5, r5, #1024	; 0x400
 800161e:	42a8      	cmp	r0, r5
 8001620:	d003      	beq.n	800162a <TIM_OC1_SetConfig+0x4a>
 8001622:	f505 6580 	add.w	r5, r5, #1024	; 0x400
 8001626:	42a8      	cmp	r0, r5
 8001628:	d11e      	bne.n	8001668 <TIM_OC1_SetConfig+0x88>
 800162a:	68cd      	ldr	r5, [r1, #12]
 800162c:	f023 0308 	bic.w	r3, r3, #8
 8001630:	432b      	orrs	r3, r5
 8001632:	4d10      	ldr	r5, [pc, #64]	; (8001674 <TIM_OC1_SetConfig+0x94>)
 8001634:	42a8      	cmp	r0, r5
 8001636:	f023 0304 	bic.w	r3, r3, #4
 800163a:	d00f      	beq.n	800165c <TIM_OC1_SetConfig+0x7c>
 800163c:	f505 6500 	add.w	r5, r5, #2048	; 0x800
 8001640:	42a8      	cmp	r0, r5
 8001642:	d00b      	beq.n	800165c <TIM_OC1_SetConfig+0x7c>
 8001644:	f505 6540 	add.w	r5, r5, #3072	; 0xc00
 8001648:	42a8      	cmp	r0, r5
 800164a:	d007      	beq.n	800165c <TIM_OC1_SetConfig+0x7c>
 800164c:	f505 6580 	add.w	r5, r5, #1024	; 0x400
 8001650:	42a8      	cmp	r0, r5
 8001652:	d003      	beq.n	800165c <TIM_OC1_SetConfig+0x7c>
 8001654:	f505 6580 	add.w	r5, r5, #1024	; 0x400
 8001658:	42a8      	cmp	r0, r5
 800165a:	d105      	bne.n	8001668 <TIM_OC1_SetConfig+0x88>
 800165c:	f424 7540 	bic.w	r5, r4, #768	; 0x300
 8001660:	e9d1 4605 	ldrd	r4, r6, [r1, #20]
 8001664:	4334      	orrs	r4, r6
 8001666:	432c      	orrs	r4, r5
 8001668:	6044      	str	r4, [r0, #4]
 800166a:	6182      	str	r2, [r0, #24]
 800166c:	684a      	ldr	r2, [r1, #4]
 800166e:	6342      	str	r2, [r0, #52]	; 0x34
 8001670:	6203      	str	r3, [r0, #32]
 8001672:	bd70      	pop	{r4, r5, r6, pc}
 8001674:	40012c00 	.word	0x40012c00

08001678 <TIM_OC3_SetConfig>:
 8001678:	6a03      	ldr	r3, [r0, #32]
 800167a:	f423 7380 	bic.w	r3, r3, #256	; 0x100
 800167e:	6203      	str	r3, [r0, #32]
 8001680:	6a03      	ldr	r3, [r0, #32]
 8001682:	b570      	push	{r4, r5, r6, lr}
 8001684:	6844      	ldr	r4, [r0, #4]
 8001686:	69c2      	ldr	r2, [r0, #28]
 8001688:	680d      	ldr	r5, [r1, #0]
 800168a:	f422 3280 	bic.w	r2, r2, #65536	; 0x10000
 800168e:	f022 0273 	bic.w	r2, r2, #115	; 0x73
 8001692:	432a      	orrs	r2, r5
 8001694:	688d      	ldr	r5, [r1, #8]
 8001696:	f423 7300 	bic.w	r3, r3, #512	; 0x200
 800169a:	ea43 2305 	orr.w	r3, r3, r5, lsl #8
 800169e:	4d16      	ldr	r5, [pc, #88]	; (80016f8 <TIM_OC3_SetConfig+0x80>)
 80016a0:	42a8      	cmp	r0, r5
 80016a2:	d003      	beq.n	80016ac <TIM_OC3_SetConfig+0x34>
 80016a4:	f505 6500 	add.w	r5, r5, #2048	; 0x800
 80016a8:	42a8      	cmp	r0, r5
 80016aa:	d10d      	bne.n	80016c8 <TIM_OC3_SetConfig+0x50>
 80016ac:	68cd      	ldr	r5, [r1, #12]
 80016ae:	f423 6300 	bic.w	r3, r3, #2048	; 0x800
 80016b2:	ea43 2305 	orr.w	r3, r3, r5, lsl #8
 80016b6:	4d10      	ldr	r5, [pc, #64]	; (80016f8 <TIM_OC3_SetConfig+0x80>)
 80016b8:	42a8      	cmp	r0, r5
 80016ba:	f423 6380 	bic.w	r3, r3, #1024	; 0x400
 80016be:	d00e      	beq.n	80016de <TIM_OC3_SetConfig+0x66>
 80016c0:	f505 6500 	add.w	r5, r5, #2048	; 0x800
 80016c4:	42a8      	cmp	r0, r5
 80016c6:	d00a      	beq.n	80016de <TIM_OC3_SetConfig+0x66>
 80016c8:	4d0c      	ldr	r5, [pc, #48]	; (80016fc <TIM_OC3_SetConfig+0x84>)
 80016ca:	42a8      	cmp	r0, r5
 80016cc:	d007      	beq.n	80016de <TIM_OC3_SetConfig+0x66>
 80016ce:	f505 6580 	add.w	r5, r5, #1024	; 0x400
 80016d2:	42a8      	cmp	r0, r5
 80016d4:	d003      	beq.n	80016de <TIM_OC3_SetConfig+0x66>
 80016d6:	f505 6580 	add.w	r5, r5, #1024	; 0x400
 80016da:	42a8      	cmp	r0, r5
 80016dc:	d106      	bne.n	80016ec <TIM_OC3_SetConfig+0x74>
 80016de:	f424 5540 	bic.w	r5, r4, #12288	; 0x3000
 80016e2:	e9d1 4605 	ldrd	r4, r6, [r1, #20]
 80016e6:	4334      	orrs	r4, r6
 80016e8:	ea45 1404 	orr.w	r4, r5, r4, lsl #4
 80016ec:	6044      	str	r4, [r0, #4]
 80016ee:	61c2      	str	r2, [r0, #28]
 80016f0:	684a      	ldr	r2, [r1, #4]
 80016f2:	63c2      	str	r2, [r0, #60]	; 0x3c
 80016f4:	6203      	str	r3, [r0, #32]
 80016f6:	bd70      	pop	{r4, r5, r6, pc}
 80016f8:	40012c00 	.word	0x40012c00
 80016fc:	40014000 	.word	0x40014000

08001700 <TIM_OC4_SetConfig>:
 8001700:	6a03      	ldr	r3, [r0, #32]
 8001702:	f423 5380 	bic.w	r3, r3, #4096	; 0x1000
 8001706:	6203      	str	r3, [r0, #32]
 8001708:	6a03      	ldr	r3, [r0, #32]
 800170a:	b570      	push	{r4, r5, r6, lr}
 800170c:	6844      	ldr	r4, [r0, #4]
 800170e:	69c2      	ldr	r2, [r0, #28]
 8001710:	680d      	ldr	r5, [r1, #0]
 8001712:	f022 7280 	bic.w	r2, r2, #16777216	; 0x1000000
 8001716:	f422 42e6 	bic.w	r2, r2, #29440	; 0x7300
 800171a:	ea42 2205 	orr.w	r2, r2, r5, lsl #8
 800171e:	688d      	ldr	r5, [r1, #8]
 8001720:	f423 5300 	bic.w	r3, r3, #8192	; 0x2000
 8001724:	ea43 3305 	orr.w	r3, r3, r5, lsl #12
 8001728:	4d16      	ldr	r5, [pc, #88]	; (8001784 <TIM_OC4_SetConfig+0x84>)
 800172a:	42a8      	cmp	r0, r5
 800172c:	d003      	beq.n	8001736 <TIM_OC4_SetConfig+0x36>
 800172e:	f505 6500 	add.w	r5, r5, #2048	; 0x800
 8001732:	42a8      	cmp	r0, r5
 8001734:	d10d      	bne.n	8001752 <TIM_OC4_SetConfig+0x52>
 8001736:	68cd      	ldr	r5, [r1, #12]
 8001738:	f423 4300 	bic.w	r3, r3, #32768	; 0x8000
 800173c:	ea43 3305 	orr.w	r3, r3, r5, lsl #12
 8001740:	4d10      	ldr	r5, [pc, #64]	; (8001784 <TIM_OC4_SetConfig+0x84>)
 8001742:	42a8      	cmp	r0, r5
 8001744:	f423 4380 	bic.w	r3, r3, #16384	; 0x4000
 8001748:	d00e      	beq.n	8001768 <TIM_OC4_SetConfig+0x68>
 800174a:	f505 6500 	add.w	r5, r5, #2048	; 0x800
 800174e:	42a8      	cmp	r0, r5
 8001750:	d00a      	beq.n	8001768 <TIM_OC4_SetConfig+0x68>
 8001752:	4d0d      	ldr	r5, [pc, #52]	; (8001788 <TIM_OC4_SetConfig+0x88>)
 8001754:	42a8      	cmp	r0, r5
 8001756:	d007      	beq.n	8001768 <TIM_OC4_SetConfig+0x68>
 8001758:	f505 6580 	add.w	r5, r5, #1024	; 0x400
 800175c:	42a8      	cmp	r0, r5
 800175e:	d003      	beq.n	8001768 <TIM_OC4_SetConfig+0x68>
 8001760:	f505 6580 	add.w	r5, r5, #1024	; 0x400
 8001764:	42a8      	cmp	r0, r5
 8001766:	d106      	bne.n	8001776 <TIM_OC4_SetConfig+0x76>
 8001768:	f424 4540 	bic.w	r5, r4, #49152	; 0xc000
 800176c:	e9d1 4605 	ldrd	r4, r6, [r1, #20]
 8001770:	4334      	orrs	r4, r6
 8001772:	ea45 1484 	orr.w	r4, r5, r4, lsl #6
 8001776:	6044      	str	r4, [r0, #4]
 8001778:	61c2      	str	r2, [r0, #28]
 800177a:	684a      	ldr	r2, [r1, #4]
 800177c:	6402      	str	r2, [r0, #64]	; 0x40
 800177e:	6203      	str	r3, [r0, #32]
 8001780:	bd70      	pop	{r4, r5, r6, pc}
 8001782:	bf00      	nop
 8001784:	40012c00 	.word	0x40012c00
 8001788:	40014000 	.word	0x40014000

0800178c <TIM_OC5_SetConfig>:
 800178c:	6a03      	ldr	r3, [r0, #32]
 800178e:	f423 3380 	bic.w	r3, r3, #65536	; 0x10000
 8001792:	6203      	str	r3, [r0, #32]
 8001794:	6a03      	ldr	r3, [r0, #32]
 8001796:	b530      	push	{r4, r5, lr}
 8001798:	6844      	ldr	r4, [r0, #4]
 800179a:	6d02      	ldr	r2, [r0, #80]	; 0x50
 800179c:	680d      	ldr	r5, [r1, #0]
 800179e:	f422 3280 	bic.w	r2, r2, #65536	; 0x10000
 80017a2:	f022 0270 	bic.w	r2, r2, #112	; 0x70
 80017a6:	432a      	orrs	r2, r5
 80017a8:	688d      	ldr	r5, [r1, #8]
 80017aa:	f423 3300 	bic.w	r3, r3, #131072	; 0x20000
 80017ae:	ea43 4305 	orr.w	r3, r3, r5, lsl #16
 80017b2:	4d0f      	ldr	r5, [pc, #60]	; (80017f0 <TIM_OC5_SetConfig+0x64>)
 80017b4:	42a8      	cmp	r0, r5
 80017b6:	d00f      	beq.n	80017d8 <TIM_OC5_SetConfig+0x4c>
 80017b8:	f505 6500 	add.w	r5, r5, #2048	; 0x800
 80017bc:	42a8      	cmp	r0, r5
 80017be:	d00b      	beq.n	80017d8 <TIM_OC5_SetConfig+0x4c>
 80017c0:	f505 6540 	add.w	r5, r5, #3072	; 0xc00
 80017c4:	42a8      	cmp	r0, r5
 80017c6:	d007      	beq.n	80017d8 <TIM_OC5_SetConfig+0x4c>
 80017c8:	f505 6580 	add.w	r5, r5, #1024	; 0x400
 80017cc:	42a8      	cmp	r0, r5
 80017ce:	d003      	beq.n	80017d8 <TIM_OC5_SetConfig+0x4c>
 80017d0:	f505 6580 	add.w	r5, r5, #1024	; 0x400
 80017d4:	42a8      	cmp	r0, r5
 80017d6:	d104      	bne.n	80017e2 <TIM_OC5_SetConfig+0x56>
 80017d8:	694d      	ldr	r5, [r1, #20]
 80017da:	f424 3480 	bic.w	r4, r4, #65536	; 0x10000
 80017de:	ea44 2405 	orr.w	r4, r4, r5, lsl #8
 80017e2:	6044      	str	r4, [r0, #4]
 80017e4:	6502      	str	r2, [r0, #80]	; 0x50
 80017e6:	684a      	ldr	r2, [r1, #4]
 80017e8:	6482      	str	r2, [r0, #72]	; 0x48
 80017ea:	6203      	str	r3, [r0, #32]
 80017ec:	bd30      	pop	{r4, r5, pc}
 80017ee:	bf00      	nop
 80017f0:	40012c00 	.word	0x40012c00

080017f4 <TIM_OC6_SetConfig>:
 80017f4:	6a03      	ldr	r3, [r0, #32]
 80017f6:	f423 1380 	bic.w	r3, r3, #1048576	; 0x100000
 80017fa:	6203      	str	r3, [r0, #32]
 80017fc:	6a03      	ldr	r3, [r0, #32]
 80017fe:	b530      	push	{r4, r5, lr}
 8001800:	6844      	ldr	r4, [r0, #4]
 8001802:	6d02      	ldr	r2, [r0, #80]	; 0x50
 8001804:	680d      	ldr	r5, [r1, #0]
 8001806:	f022 7280 	bic.w	r2, r2, #16777216	; 0x1000000
 800180a:	f422 42e0 	bic.w	r2, r2, #28672	; 0x7000
 800180e:	ea42 2205 	orr.w	r2, r2, r5, lsl #8
 8001812:	688d      	ldr	r5, [r1, #8]
 8001814:	f423 1300 	bic.w	r3, r3, #2097152	; 0x200000
 8001818:	ea43 5305 	orr.w	r3, r3, r5, lsl #20
 800181c:	4d0e      	ldr	r5, [pc, #56]	; (8001858 <TIM_OC6_SetConfig+0x64>)
 800181e:	42a8      	cmp	r0, r5
 8001820:	d00f      	beq.n	8001842 <TIM_OC6_SetConfig+0x4e>
 8001822:	f505 6500 	add.w	r5, r5, #2048	; 0x800
 8001826:	42a8      	cmp	r0, r5
 8001828:	d00b      	beq.n	8001842 <TIM_OC6_SetConfig+0x4e>
 800182a:	f505 6540 	add.w	r5, r5, #3072	; 0xc00
 800182e:	42a8      	cmp	r0, r5
 8001830:	d007      	beq.n	8001842 <TIM_OC6_SetConfig+0x4e>
 8001832:	f505 6580 	add.w	r5, r5, #1024	; 0x400
 8001836:	42a8      	cmp	r0, r5
 8001838:	d003      	beq.n	8001842 <TIM_OC6_SetConfig+0x4e>
 800183a:	f505 6580 	add.w	r5, r5, #1024	; 0x400
 800183e:	42a8      	cmp	r0, r5
 8001840:	d104      	bne.n	800184c <TIM_OC6_SetConfig+0x58>
 8001842:	694d      	ldr	r5, [r1, #20]
 8001844:	f424 2480 	bic.w	r4, r4, #262144	; 0x40000
 8001848:	ea44 2485 	orr.w	r4, r4, r5, lsl #10
 800184c:	6044      	str	r4, [r0, #4]
 800184e:	6502      	str	r2, [r0, #80]	; 0x50
 8001850:	684a      	ldr	r2, [r1, #4]
 8001852:	64c2      	str	r2, [r0, #76]	; 0x4c
 8001854:	6203      	str	r3, [r0, #32]
 8001856:	bd30      	pop	{r4, r5, pc}
 8001858:	40012c00 	.word	0x40012c00

0800185c <HAL_TIM_PWM_MspInit>:
 800185c:	4770      	bx	lr
	...

08001860 <TIM_Base_SetConfig>:
 8001860:	4a2c      	ldr	r2, [pc, #176]	; (8001914 <TIM_Base_SetConfig+0xb4>)
 8001862:	6803      	ldr	r3, [r0, #0]
 8001864:	4290      	cmp	r0, r2
 8001866:	d00e      	beq.n	8001886 <TIM_Base_SetConfig+0x26>
 8001868:	f1b0 4f80 	cmp.w	r0, #1073741824	; 0x40000000
 800186c:	d00b      	beq.n	8001886 <TIM_Base_SetConfig+0x26>
 800186e:	f5a2 3294 	sub.w	r2, r2, #75776	; 0x12800
 8001872:	4290      	cmp	r0, r2
 8001874:	d007      	beq.n	8001886 <TIM_Base_SetConfig+0x26>
 8001876:	f502 6280 	add.w	r2, r2, #1024	; 0x400
 800187a:	4290      	cmp	r0, r2
 800187c:	d003      	beq.n	8001886 <TIM_Base_SetConfig+0x26>
 800187e:	f502 3296 	add.w	r2, r2, #76800	; 0x12c00
 8001882:	4290      	cmp	r0, r2
 8001884:	d115      	bne.n	80018b2 <TIM_Base_SetConfig+0x52>
 8001886:	684a      	ldr	r2, [r1, #4]
 8001888:	f023 0370 	bic.w	r3, r3, #112	; 0x70
 800188c:	4313      	orrs	r3, r2
 800188e:	4a21      	ldr	r2, [pc, #132]	; (8001914 <TIM_Base_SetConfig+0xb4>)
 8001890:	4290      	cmp	r0, r2
 8001892:	d019      	beq.n	80018c8 <TIM_Base_SetConfig+0x68>
 8001894:	f1b0 4f80 	cmp.w	r0, #1073741824	; 0x40000000
 8001898:	d016      	beq.n	80018c8 <TIM_Base_SetConfig+0x68>
 800189a:	f5a2 3294 	sub.w	r2, r2, #75776	; 0x12800
 800189e:	4290      	cmp	r0, r2
 80018a0:	d012      	beq.n	80018c8 <TIM_Base_SetConfig+0x68>
 80018a2:	f502 6280 	add.w	r2, r2, #1024	; 0x400
 80018a6:	4290      	cmp	r0, r2
 80018a8:	d00e      	beq.n	80018c8 <TIM_Base_SetConfig+0x68>
 80018aa:	f502 3296 	add.w	r2, r2, #76800	; 0x12c00
 80018ae:	4290      	cmp	r0, r2
 80018b0:	d00a      	beq.n	80018c8 <TIM_Base_SetConfig+0x68>
 80018b2:	4a19      	ldr	r2, [pc, #100]	; (8001918 <TIM_Base_SetConfig+0xb8>)
 80018b4:	4290      	cmp	r0, r2
 80018b6:	d007      	beq.n	80018c8 <TIM_Base_SetConfig+0x68>
 80018b8:	f502 6280 	add.w	r2, r2, #1024	; 0x400
 80018bc:	4290      	cmp	r0, r2
 80018be:	d003      	beq.n	80018c8 <TIM_Base_SetConfig+0x68>
 80018c0:	f502 6280 	add.w	r2, r2, #1024	; 0x400
 80018c4:	4290      	cmp	r0, r2
 80018c6:	d103      	bne.n	80018d0 <TIM_Base_SetConfig+0x70>
 80018c8:	68ca      	ldr	r2, [r1, #12]
 80018ca:	f423 7340 	bic.w	r3, r3, #768	; 0x300
 80018ce:	4313      	orrs	r3, r2
 80018d0:	694a      	ldr	r2, [r1, #20]
 80018d2:	f023 0380 	bic.w	r3, r3, #128	; 0x80
 80018d6:	4313      	orrs	r3, r2
 80018d8:	6003      	str	r3, [r0, #0]
 80018da:	688b      	ldr	r3, [r1, #8]
 80018dc:	62c3      	str	r3, [r0, #44]	; 0x2c
 80018de:	680b      	ldr	r3, [r1, #0]
 80018e0:	6283      	str	r3, [r0, #40]	; 0x28
 80018e2:	4b0c      	ldr	r3, [pc, #48]	; (8001914 <TIM_Base_SetConfig+0xb4>)
 80018e4:	4298      	cmp	r0, r3
 80018e6:	d00f      	beq.n	8001908 <TIM_Base_SetConfig+0xa8>
 80018e8:	f503 6300 	add.w	r3, r3, #2048	; 0x800
 80018ec:	4298      	cmp	r0, r3
 80018ee:	d00b      	beq.n	8001908 <TIM_Base_SetConfig+0xa8>
 80018f0:	f503 6340 	add.w	r3, r3, #3072	; 0xc00
 80018f4:	4298      	cmp	r0, r3
 80018f6:	d007      	beq.n	8001908 <TIM_Base_SetConfig+0xa8>
 80018f8:	f503 6380 	add.w	r3, r3, #1024	; 0x400
 80018fc:	4298      	cmp	r0, r3
 80018fe:	d003      	beq.n	8001908 <TIM_Base_SetConfig+0xa8>
 8001900:	f503 6380 	add.w	r3, r3, #1024	; 0x400
 8001904:	4298      	cmp	r0, r3
 8001906:	d101      	bne.n	800190c <TIM_Base_SetConfig+0xac>
 8001908:	690b      	ldr	r3, [r1, #16]
 800190a:	6303      	str	r3, [r0, #48]	; 0x30
 800190c:	2301      	movs	r3, #1
 800190e:	6143      	str	r3, [r0, #20]
 8001910:	4770      	bx	lr
 8001912:	bf00      	nop
 8001914:	40012c00 	.word	0x40012c00
 8001918:	40014000 	.word	0x40014000

0800191c <HAL_TIM_Base_Init>:
 800191c:	b510      	push	{r4, lr}
 800191e:	4604      	mov	r4, r0
 8001920:	b350      	cbz	r0, 8001978 <HAL_TIM_Base_Init+0x5c>
 8001922:	f890 303d 	ldrb.w	r3, [r0, #61]	; 0x3d
 8001926:	f003 02ff 	and.w	r2, r3, #255	; 0xff
 800192a:	b91b      	cbnz	r3, 8001934 <HAL_TIM_Base_Init+0x18>
 800192c:	f880 203c 	strb.w	r2, [r0, #60]	; 0x3c
 8001930:	f7fe fe42 	bl	80005b8 <HAL_TIM_Base_MspInit>
 8001934:	2302      	movs	r3, #2
 8001936:	6820      	ldr	r0, [r4, #0]
 8001938:	f884 303d 	strb.w	r3, [r4, #61]	; 0x3d
 800193c:	1d21      	adds	r1, r4, #4
 800193e:	f7ff ff8f 	bl	8001860 <TIM_Base_SetConfig>
 8001942:	2301      	movs	r3, #1
 8001944:	f884 3048 	strb.w	r3, [r4, #72]	; 0x48
 8001948:	2000      	movs	r0, #0
 800194a:	f884 303e 	strb.w	r3, [r4, #62]	; 0x3e
 800194e:	f884 303f 	strb.w	r3, [r4, #63]	; 0x3f
 8001952:	f884 3040 	strb.w	r3, [r4, #64]	; 0x40
 8001956:	f884 3041 	strb.w	r3, [r4, #65]	; 0x41
 800195a:	f884 3042 	strb.w	r3, [r4, #66]	; 0x42
 800195e:	f884 3043 	strb.w	r3, [r4, #67]	; 0x43
 8001962:	f884 3044 	strb.w	r3, [r4, #68]	; 0x44
 8001966:	f884 3045 	strb.w	r3, [r4, #69]	; 0x45
 800196a:	f884 3046 	strb.w	r3, [r4, #70]	; 0x46
 800196e:	f884 3047 	strb.w	r3, [r4, #71]	; 0x47
 8001972:	f884 303d 	strb.w	r3, [r4, #61]	; 0x3d
 8001976:	bd10      	pop	{r4, pc}
 8001978:	2001      	movs	r0, #1
 800197a:	e7fc      	b.n	8001976 <HAL_TIM_Base_Init+0x5a>

0800197c <HAL_TIM_PWM_Init>:
 800197c:	b510      	push	{r4, lr}
 800197e:	4604      	mov	r4, r0
 8001980:	b350      	cbz	r0, 80019d8 <HAL_TIM_PWM_Init+0x5c>
 8001982:	f890 303d 	ldrb.w	r3, [r0, #61]	; 0x3d
 8001986:	f003 02ff 	and.w	r2, r3, #255	; 0xff
 800198a:	b91b      	cbnz	r3, 8001994 <HAL_TIM_PWM_Init+0x18>
 800198c:	f880 203c 	strb.w	r2, [r0, #60]	; 0x3c
 8001990:	f7ff ff64 	bl	800185c <HAL_TIM_PWM_MspInit>
 8001994:	2302      	movs	r3, #2
 8001996:	6820      	ldr	r0, [r4, #0]
 8001998:	f884 303d 	strb.w	r3, [r4, #61]	; 0x3d
 800199c:	1d21      	adds	r1, r4, #4
 800199e:	f7ff ff5f 	bl	8001860 <TIM_Base_SetConfig>
 80019a2:	2301      	movs	r3, #1
 80019a4:	f884 3048 	strb.w	r3, [r4, #72]	; 0x48
 80019a8:	2000      	movs	r0, #0
 80019aa:	f884 303e 	strb.w	r3, [r4, #62]	; 0x3e
 80019ae:	f884 303f 	strb.w	r3, [r4, #63]	; 0x3f
 80019b2:	f884 3040 	strb.w	r3, [r4, #64]	; 0x40
 80019b6:	f884 3041 	strb.w	r3, [r4, #65]	; 0x41
 80019ba:	f884 3042 	strb.w	r3, [r4, #66]	; 0x42
 80019be:	f884 3043 	strb.w	r3, [r4, #67]	; 0x43
 80019c2:	f884 3044 	strb.w	r3, [r4, #68]	; 0x44
 80019c6:	f884 3045 	strb.w	r3, [r4, #69]	; 0x45
 80019ca:	f884 3046 	strb.w	r3, [r4, #70]	; 0x46
 80019ce:	f884 3047 	strb.w	r3, [r4, #71]	; 0x47
 80019d2:	f884 303d 	strb.w	r3, [r4, #61]	; 0x3d
 80019d6:	bd10      	pop	{r4, pc}
 80019d8:	2001      	movs	r0, #1
 80019da:	e7fc      	b.n	80019d6 <HAL_TIM_PWM_Init+0x5a>

080019dc <TIM_OC2_SetConfig>:
 80019dc:	6a03      	ldr	r3, [r0, #32]
 80019de:	f023 0310 	bic.w	r3, r3, #16
 80019e2:	6203      	str	r3, [r0, #32]
 80019e4:	6a03      	ldr	r3, [r0, #32]
 80019e6:	b570      	push	{r4, r5, r6, lr}
 80019e8:	6844      	ldr	r4, [r0, #4]
 80019ea:	6982      	ldr	r2, [r0, #24]
 80019ec:	680d      	ldr	r5, [r1, #0]
 80019ee:	f022 7280 	bic.w	r2, r2, #16777216	; 0x1000000
 80019f2:	f422 42e6 	bic.w	r2, r2, #29440	; 0x7300
 80019f6:	ea42 2205 	orr.w	r2, r2, r5, lsl #8
 80019fa:	688d      	ldr	r5, [r1, #8]
 80019fc:	f023 0320 	bic.w	r3, r3, #32
 8001a00:	ea43 1305 	orr.w	r3, r3, r5, lsl #4
 8001a04:	4d16      	ldr	r5, [pc, #88]	; (8001a60 <TIM_OC2_SetConfig+0x84>)
 8001a06:	42a8      	cmp	r0, r5
 8001a08:	d003      	beq.n	8001a12 <TIM_OC2_SetConfig+0x36>
 8001a0a:	f505 6500 	add.w	r5, r5, #2048	; 0x800
 8001a0e:	42a8      	cmp	r0, r5
 8001a10:	d10d      	bne.n	8001a2e <TIM_OC2_SetConfig+0x52>
 8001a12:	68cd      	ldr	r5, [r1, #12]
 8001a14:	f023 0380 	bic.w	r3, r3, #128	; 0x80
 8001a18:	ea43 1305 	orr.w	r3, r3, r5, lsl #4
 8001a1c:	4d10      	ldr	r5, [pc, #64]	; (8001a60 <TIM_OC2_SetConfig+0x84>)
 8001a1e:	42a8      	cmp	r0, r5
 8001a20:	f023 0340 	bic.w	r3, r3, #64	; 0x40
 8001a24:	d00e      	beq.n	8001a44 <TIM_OC2_SetConfig+0x68>
 8001a26:	f505 6500 	add.w	r5, r5, #2048	; 0x800
 8001a2a:	42a8      	cmp	r0, r5
 8001a2c:	d00a      	beq.n	8001a44 <TIM_OC2_SetConfig+0x68>
 8001a2e:	4d0d      	ldr	r5, [pc, #52]	; (8001a64 <TIM_OC2_SetConfig+0x88>)
 8001a30:	42a8      	cmp	r0, r5
 8001a32:	d007      	beq.n	8001a44 <TIM_OC2_SetConfig+0x68>
 8001a34:	f505 6580 	add.w	r5, r5, #1024	; 0x400
 8001a38:	42a8      	cmp	r0, r5
 8001a3a:	d003      	beq.n	8001a44 <TIM_OC2_SetConfig+0x68>
 8001a3c:	f505 6580 	add.w	r5, r5, #1024	; 0x400
 8001a40:	42a8      	cmp	r0, r5
 8001a42:	d106      	bne.n	8001a52 <TIM_OC2_SetConfig+0x76>
 8001a44:	f424 6540 	bic.w	r5, r4, #3072	; 0xc00
 8001a48:	e9d1 4605 	ldrd	r4, r6, [r1, #20]
 8001a4c:	4334      	orrs	r4, r6
 8001a4e:	ea45 0484 	orr.w	r4, r5, r4, lsl #2
 8001a52:	6044      	str	r4, [r0, #4]
 8001a54:	6182      	str	r2, [r0, #24]
 8001a56:	684a      	ldr	r2, [r1, #4]
 8001a58:	6382      	str	r2, [r0, #56]	; 0x38
 8001a5a:	6203      	str	r3, [r0, #32]
 8001a5c:	bd70      	pop	{r4, r5, r6, pc}
 8001a5e:	bf00      	nop
 8001a60:	40012c00 	.word	0x40012c00
 8001a64:	40014000 	.word	0x40014000

08001a68 <HAL_TIM_PWM_ConfigChannel>:
 8001a68:	b570      	push	{r4, r5, r6, lr}
 8001a6a:	f890 303c 	ldrb.w	r3, [r0, #60]	; 0x3c
 8001a6e:	2b01      	cmp	r3, #1
 8001a70:	4605      	mov	r5, r0
 8001a72:	d079      	beq.n	8001b68 <HAL_TIM_PWM_ConfigChannel+0x100>
 8001a74:	2001      	movs	r0, #1
 8001a76:	2a0c      	cmp	r2, #12
 8001a78:	f885 003c 	strb.w	r0, [r5, #60]	; 0x3c
 8001a7c:	d052      	beq.n	8001b24 <HAL_TIM_PWM_ConfigChannel+0xbc>
 8001a7e:	d808      	bhi.n	8001a92 <HAL_TIM_PWM_ConfigChannel+0x2a>
 8001a80:	2a04      	cmp	r2, #4
 8001a82:	d02d      	beq.n	8001ae0 <HAL_TIM_PWM_ConfigChannel+0x78>
 8001a84:	2a08      	cmp	r2, #8
 8001a86:	d03c      	beq.n	8001b02 <HAL_TIM_PWM_ConfigChannel+0x9a>
 8001a88:	b1c2      	cbz	r2, 8001abc <HAL_TIM_PWM_ConfigChannel+0x54>
 8001a8a:	2300      	movs	r3, #0
 8001a8c:	f885 303c 	strb.w	r3, [r5, #60]	; 0x3c
 8001a90:	bd70      	pop	{r4, r5, r6, pc}
 8001a92:	2a10      	cmp	r2, #16
 8001a94:	d057      	beq.n	8001b46 <HAL_TIM_PWM_ConfigChannel+0xde>
 8001a96:	2a14      	cmp	r2, #20
 8001a98:	d1f7      	bne.n	8001a8a <HAL_TIM_PWM_ConfigChannel+0x22>
 8001a9a:	6828      	ldr	r0, [r5, #0]
 8001a9c:	f7ff feaa 	bl	80017f4 <TIM_OC6_SetConfig>
 8001aa0:	682b      	ldr	r3, [r5, #0]
 8001aa2:	6909      	ldr	r1, [r1, #16]
 8001aa4:	6d1a      	ldr	r2, [r3, #80]	; 0x50
 8001aa6:	f442 6200 	orr.w	r2, r2, #2048	; 0x800
 8001aaa:	651a      	str	r2, [r3, #80]	; 0x50
 8001aac:	6d1a      	ldr	r2, [r3, #80]	; 0x50
 8001aae:	f422 6280 	bic.w	r2, r2, #1024	; 0x400
 8001ab2:	651a      	str	r2, [r3, #80]	; 0x50
 8001ab4:	6d1a      	ldr	r2, [r3, #80]	; 0x50
 8001ab6:	ea42 2201 	orr.w	r2, r2, r1, lsl #8
 8001aba:	e053      	b.n	8001b64 <HAL_TIM_PWM_ConfigChannel+0xfc>
 8001abc:	6828      	ldr	r0, [r5, #0]
 8001abe:	f7ff fd8f 	bl	80015e0 <TIM_OC1_SetConfig>
 8001ac2:	682b      	ldr	r3, [r5, #0]
 8001ac4:	6909      	ldr	r1, [r1, #16]
 8001ac6:	699a      	ldr	r2, [r3, #24]
 8001ac8:	f042 0208 	orr.w	r2, r2, #8
 8001acc:	619a      	str	r2, [r3, #24]
 8001ace:	699a      	ldr	r2, [r3, #24]
 8001ad0:	f022 0204 	bic.w	r2, r2, #4
 8001ad4:	619a      	str	r2, [r3, #24]
 8001ad6:	699a      	ldr	r2, [r3, #24]
 8001ad8:	430a      	orrs	r2, r1
 8001ada:	619a      	str	r2, [r3, #24]
 8001adc:	2000      	movs	r0, #0
 8001ade:	e7d4      	b.n	8001a8a <HAL_TIM_PWM_ConfigChannel+0x22>
 8001ae0:	6828      	ldr	r0, [r5, #0]
 8001ae2:	f7ff ff7b 	bl	80019dc <TIM_OC2_SetConfig>
 8001ae6:	682b      	ldr	r3, [r5, #0]
 8001ae8:	6909      	ldr	r1, [r1, #16]
 8001aea:	699a      	ldr	r2, [r3, #24]
 8001aec:	f442 6200 	orr.w	r2, r2, #2048	; 0x800
 8001af0:	619a      	str	r2, [r3, #24]
 8001af2:	699a      	ldr	r2, [r3, #24]
 8001af4:	f422 6280 	bic.w	r2, r2, #1024	; 0x400
 8001af8:	619a      	str	r2, [r3, #24]
 8001afa:	699a      	ldr	r2, [r3, #24]
 8001afc:	ea42 2201 	orr.w	r2, r2, r1, lsl #8
 8001b00:	e7eb      	b.n	8001ada <HAL_TIM_PWM_ConfigChannel+0x72>
 8001b02:	6828      	ldr	r0, [r5, #0]
 8001b04:	f7ff fdb8 	bl	8001678 <TIM_OC3_SetConfig>
 8001b08:	682b      	ldr	r3, [r5, #0]
 8001b0a:	6909      	ldr	r1, [r1, #16]
 8001b0c:	69da      	ldr	r2, [r3, #28]
 8001b0e:	f042 0208 	orr.w	r2, r2, #8
 8001b12:	61da      	str	r2, [r3, #28]
 8001b14:	69da      	ldr	r2, [r3, #28]
 8001b16:	f022 0204 	bic.w	r2, r2, #4
 8001b1a:	61da      	str	r2, [r3, #28]
 8001b1c:	69da      	ldr	r2, [r3, #28]
 8001b1e:	430a      	orrs	r2, r1
 8001b20:	61da      	str	r2, [r3, #28]
 8001b22:	e7db      	b.n	8001adc <HAL_TIM_PWM_ConfigChannel+0x74>
 8001b24:	6828      	ldr	r0, [r5, #0]
 8001b26:	f7ff fdeb 	bl	8001700 <TIM_OC4_SetConfig>
 8001b2a:	682b      	ldr	r3, [r5, #0]
 8001b2c:	6909      	ldr	r1, [r1, #16]
 8001b2e:	69da      	ldr	r2, [r3, #28]
 8001b30:	f442 6200 	orr.w	r2, r2, #2048	; 0x800
 8001b34:	61da      	str	r2, [r3, #28]
 8001b36:	69da      	ldr	r2, [r3, #28]
 8001b38:	f422 6280 	bic.w	r2, r2, #1024	; 0x400
 8001b3c:	61da      	str	r2, [r3, #28]
 8001b3e:	69da      	ldr	r2, [r3, #28]
 8001b40:	ea42 2201 	orr.w	r2, r2, r1, lsl #8
 8001b44:	e7ec      	b.n	8001b20 <HAL_TIM_PWM_ConfigChannel+0xb8>
 8001b46:	6828      	ldr	r0, [r5, #0]
 8001b48:	f7ff fe20 	bl	800178c <TIM_OC5_SetConfig>
 8001b4c:	682b      	ldr	r3, [r5, #0]
 8001b4e:	6909      	ldr	r1, [r1, #16]
 8001b50:	6d1a      	ldr	r2, [r3, #80]	; 0x50
 8001b52:	f042 0208 	orr.w	r2, r2, #8
 8001b56:	651a      	str	r2, [r3, #80]	; 0x50
 8001b58:	6d1a      	ldr	r2, [r3, #80]	; 0x50
 8001b5a:	f022 0204 	bic.w	r2, r2, #4
 8001b5e:	651a      	str	r2, [r3, #80]	; 0x50
 8001b60:	6d1a      	ldr	r2, [r3, #80]	; 0x50
 8001b62:	430a      	orrs	r2, r1
 8001b64:	651a      	str	r2, [r3, #80]	; 0x50
 8001b66:	e7b9      	b.n	8001adc <HAL_TIM_PWM_ConfigChannel+0x74>
 8001b68:	2002      	movs	r0, #2
 8001b6a:	e791      	b.n	8001a90 <HAL_TIM_PWM_ConfigChannel+0x28>

08001b6c <TIM_ETR_SetConfig>:
 8001b6c:	b510      	push	{r4, lr}
 8001b6e:	6884      	ldr	r4, [r0, #8]
 8001b70:	4311      	orrs	r1, r2
 8001b72:	f424 447f 	bic.w	r4, r4, #65280	; 0xff00
 8001b76:	ea41 2303 	orr.w	r3, r1, r3, lsl #8
 8001b7a:	4323      	orrs	r3, r4
 8001b7c:	6083      	str	r3, [r0, #8]
 8001b7e:	bd10      	pop	{r4, pc}

08001b80 <HAL_TIM_ConfigClockSource>:
 8001b80:	b570      	push	{r4, r5, r6, lr}
 8001b82:	f890 303c 	ldrb.w	r3, [r0, #60]	; 0x3c
 8001b86:	2b01      	cmp	r3, #1
 8001b88:	4604      	mov	r4, r0
 8001b8a:	f04f 0302 	mov.w	r3, #2
 8001b8e:	f000 80ae 	beq.w	8001cee <HAL_TIM_ConfigClockSource+0x16e>
 8001b92:	2201      	movs	r2, #1
 8001b94:	f880 303d 	strb.w	r3, [r0, #61]	; 0x3d
 8001b98:	f880 203c 	strb.w	r2, [r0, #60]	; 0x3c
 8001b9c:	6800      	ldr	r0, [r0, #0]
 8001b9e:	4b55      	ldr	r3, [pc, #340]	; (8001cf4 <HAL_TIM_ConfigClockSource+0x174>)
 8001ba0:	6885      	ldr	r5, [r0, #8]
 8001ba2:	402b      	ands	r3, r5
 8001ba4:	6083      	str	r3, [r0, #8]
 8001ba6:	680b      	ldr	r3, [r1, #0]
 8001ba8:	2b70      	cmp	r3, #112	; 0x70
 8001baa:	d057      	beq.n	8001c5c <HAL_TIM_ConfigClockSource+0xdc>
 8001bac:	d83d      	bhi.n	8001c2a <HAL_TIM_ConfigClockSource+0xaa>
 8001bae:	2b50      	cmp	r3, #80	; 0x50
 8001bb0:	d06a      	beq.n	8001c88 <HAL_TIM_ConfigClockSource+0x108>
 8001bb2:	d81e      	bhi.n	8001bf2 <HAL_TIM_ConfigClockSource+0x72>
 8001bb4:	2b40      	cmp	r3, #64	; 0x40
 8001bb6:	f000 8081 	beq.w	8001cbc <HAL_TIM_ConfigClockSource+0x13c>
 8001bba:	d806      	bhi.n	8001bca <HAL_TIM_ConfigClockSource+0x4a>
 8001bbc:	2b20      	cmp	r3, #32
 8001bbe:	d00e      	beq.n	8001bde <HAL_TIM_ConfigClockSource+0x5e>
 8001bc0:	d80b      	bhi.n	8001bda <HAL_TIM_ConfigClockSource+0x5a>
 8001bc2:	f033 0210 	bics.w	r2, r3, #16
 8001bc6:	d00a      	beq.n	8001bde <HAL_TIM_ConfigClockSource+0x5e>
 8001bc8:	2201      	movs	r2, #1
 8001bca:	2301      	movs	r3, #1
 8001bcc:	f884 303d 	strb.w	r3, [r4, #61]	; 0x3d
 8001bd0:	2300      	movs	r3, #0
 8001bd2:	f884 303c 	strb.w	r3, [r4, #60]	; 0x3c
 8001bd6:	4610      	mov	r0, r2
 8001bd8:	bd70      	pop	{r4, r5, r6, pc}
 8001bda:	2b30      	cmp	r3, #48	; 0x30
 8001bdc:	d1f4      	bne.n	8001bc8 <HAL_TIM_ConfigClockSource+0x48>
 8001bde:	6882      	ldr	r2, [r0, #8]
 8001be0:	f422 1240 	bic.w	r2, r2, #3145728	; 0x300000
 8001be4:	f022 0270 	bic.w	r2, r2, #112	; 0x70
 8001be8:	431a      	orrs	r2, r3
 8001bea:	f042 0207 	orr.w	r2, r2, #7
 8001bee:	6082      	str	r2, [r0, #8]
 8001bf0:	e03e      	b.n	8001c70 <HAL_TIM_ConfigClockSource+0xf0>
 8001bf2:	2b60      	cmp	r3, #96	; 0x60
 8001bf4:	d1e9      	bne.n	8001bca <HAL_TIM_ConfigClockSource+0x4a>
 8001bf6:	684d      	ldr	r5, [r1, #4]
 8001bf8:	68ce      	ldr	r6, [r1, #12]
 8001bfa:	6a01      	ldr	r1, [r0, #32]
 8001bfc:	f021 0110 	bic.w	r1, r1, #16
 8001c00:	6201      	str	r1, [r0, #32]
 8001c02:	6982      	ldr	r2, [r0, #24]
 8001c04:	6a03      	ldr	r3, [r0, #32]
 8001c06:	f422 4270 	bic.w	r2, r2, #61440	; 0xf000
 8001c0a:	f023 03a0 	bic.w	r3, r3, #160	; 0xa0
 8001c0e:	ea43 1305 	orr.w	r3, r3, r5, lsl #4
 8001c12:	ea42 3206 	orr.w	r2, r2, r6, lsl #12
 8001c16:	6182      	str	r2, [r0, #24]
 8001c18:	6203      	str	r3, [r0, #32]
 8001c1a:	6883      	ldr	r3, [r0, #8]
 8001c1c:	f423 1340 	bic.w	r3, r3, #3145728	; 0x300000
 8001c20:	f023 0370 	bic.w	r3, r3, #112	; 0x70
 8001c24:	f043 0367 	orr.w	r3, r3, #103	; 0x67
 8001c28:	e046      	b.n	8001cb8 <HAL_TIM_ConfigClockSource+0x138>
 8001c2a:	f5b3 5f00 	cmp.w	r3, #8192	; 0x2000
 8001c2e:	d021      	beq.n	8001c74 <HAL_TIM_ConfigClockSource+0xf4>
 8001c30:	d804      	bhi.n	8001c3c <HAL_TIM_ConfigClockSource+0xbc>
 8001c32:	f5b3 5280 	subs.w	r2, r3, #4096	; 0x1000
 8001c36:	bf18      	it	ne
 8001c38:	2201      	movne	r2, #1
 8001c3a:	e7c6      	b.n	8001bca <HAL_TIM_ConfigClockSource+0x4a>
 8001c3c:	492e      	ldr	r1, [pc, #184]	; (8001cf8 <HAL_TIM_ConfigClockSource+0x178>)
 8001c3e:	428b      	cmp	r3, r1
 8001c40:	d0cd      	beq.n	8001bde <HAL_TIM_ConfigClockSource+0x5e>
 8001c42:	d806      	bhi.n	8001c52 <HAL_TIM_ConfigClockSource+0xd2>
 8001c44:	f1b3 1f10 	cmp.w	r3, #1048592	; 0x100010
 8001c48:	d0c9      	beq.n	8001bde <HAL_TIM_ConfigClockSource+0x5e>
 8001c4a:	3910      	subs	r1, #16
 8001c4c:	428b      	cmp	r3, r1
 8001c4e:	d0c6      	beq.n	8001bde <HAL_TIM_ConfigClockSource+0x5e>
 8001c50:	e7bb      	b.n	8001bca <HAL_TIM_ConfigClockSource+0x4a>
 8001c52:	492a      	ldr	r1, [pc, #168]	; (8001cfc <HAL_TIM_ConfigClockSource+0x17c>)
 8001c54:	428b      	cmp	r3, r1
 8001c56:	d0c2      	beq.n	8001bde <HAL_TIM_ConfigClockSource+0x5e>
 8001c58:	3130      	adds	r1, #48	; 0x30
 8001c5a:	e7f7      	b.n	8001c4c <HAL_TIM_ConfigClockSource+0xcc>
 8001c5c:	68cb      	ldr	r3, [r1, #12]
 8001c5e:	e9d1 2101 	ldrd	r2, r1, [r1, #4]
 8001c62:	f7ff ff83 	bl	8001b6c <TIM_ETR_SetConfig>
 8001c66:	6822      	ldr	r2, [r4, #0]
 8001c68:	6893      	ldr	r3, [r2, #8]
 8001c6a:	f043 0377 	orr.w	r3, r3, #119	; 0x77
 8001c6e:	6093      	str	r3, [r2, #8]
 8001c70:	2200      	movs	r2, #0
 8001c72:	e7aa      	b.n	8001bca <HAL_TIM_ConfigClockSource+0x4a>
 8001c74:	68cb      	ldr	r3, [r1, #12]
 8001c76:	e9d1 2101 	ldrd	r2, r1, [r1, #4]
 8001c7a:	f7ff ff77 	bl	8001b6c <TIM_ETR_SetConfig>
 8001c7e:	6822      	ldr	r2, [r4, #0]
 8001c80:	6893      	ldr	r3, [r2, #8]
 8001c82:	f443 4380 	orr.w	r3, r3, #16384	; 0x4000
 8001c86:	e7f2      	b.n	8001c6e <HAL_TIM_ConfigClockSource+0xee>
 8001c88:	684a      	ldr	r2, [r1, #4]
 8001c8a:	68ce      	ldr	r6, [r1, #12]
 8001c8c:	6a01      	ldr	r1, [r0, #32]
 8001c8e:	6a05      	ldr	r5, [r0, #32]
 8001c90:	f025 0501 	bic.w	r5, r5, #1
 8001c94:	6205      	str	r5, [r0, #32]
 8001c96:	6983      	ldr	r3, [r0, #24]
 8001c98:	f021 010a 	bic.w	r1, r1, #10
 8001c9c:	f023 03f0 	bic.w	r3, r3, #240	; 0xf0
 8001ca0:	ea43 1306 	orr.w	r3, r3, r6, lsl #4
 8001ca4:	430a      	orrs	r2, r1
 8001ca6:	6183      	str	r3, [r0, #24]
 8001ca8:	6202      	str	r2, [r0, #32]
 8001caa:	6883      	ldr	r3, [r0, #8]
 8001cac:	f423 1340 	bic.w	r3, r3, #3145728	; 0x300000
 8001cb0:	f023 0370 	bic.w	r3, r3, #112	; 0x70
 8001cb4:	f043 0357 	orr.w	r3, r3, #87	; 0x57
 8001cb8:	6083      	str	r3, [r0, #8]
 8001cba:	e7d9      	b.n	8001c70 <HAL_TIM_ConfigClockSource+0xf0>
 8001cbc:	684a      	ldr	r2, [r1, #4]
 8001cbe:	68ce      	ldr	r6, [r1, #12]
 8001cc0:	6a01      	ldr	r1, [r0, #32]
 8001cc2:	6a05      	ldr	r5, [r0, #32]
 8001cc4:	f025 0501 	bic.w	r5, r5, #1
 8001cc8:	6205      	str	r5, [r0, #32]
 8001cca:	6983      	ldr	r3, [r0, #24]
 8001ccc:	f021 010a 	bic.w	r1, r1, #10
 8001cd0:	f023 03f0 	bic.w	r3, r3, #240	; 0xf0
 8001cd4:	ea43 1306 	orr.w	r3, r3, r6, lsl #4
 8001cd8:	430a      	orrs	r2, r1
 8001cda:	6183      	str	r3, [r0, #24]
 8001cdc:	6202      	str	r2, [r0, #32]
 8001cde:	6883      	ldr	r3, [r0, #8]
 8001ce0:	f423 1340 	bic.w	r3, r3, #3145728	; 0x300000
 8001ce4:	f023 0370 	bic.w	r3, r3, #112	; 0x70
 8001ce8:	f043 0347 	orr.w	r3, r3, #71	; 0x47
 8001cec:	e7e4      	b.n	8001cb8 <HAL_TIM_ConfigClockSource+0x138>
 8001cee:	461a      	mov	r2, r3
 8001cf0:	e771      	b.n	8001bd6 <HAL_TIM_ConfigClockSource+0x56>
 8001cf2:	bf00      	nop
 8001cf4:	ffce0088 	.word	0xffce0088
 8001cf8:	00100030 	.word	0x00100030
 8001cfc:	00100040 	.word	0x00100040

08001d00 <TIM_CCxChannelCmd>:
 8001d00:	6a03      	ldr	r3, [r0, #32]
 8001d02:	f001 011f 	and.w	r1, r1, #31
 8001d06:	b510      	push	{r4, lr}
 8001d08:	2401      	movs	r4, #1
 8001d0a:	408c      	lsls	r4, r1
 8001d0c:	ea23 0304 	bic.w	r3, r3, r4
 8001d10:	6203      	str	r3, [r0, #32]
 8001d12:	6a03      	ldr	r3, [r0, #32]
 8001d14:	408a      	lsls	r2, r1
 8001d16:	431a      	orrs	r2, r3
 8001d18:	6202      	str	r2, [r0, #32]
 8001d1a:	bd10      	pop	{r4, pc}

08001d1c <HAL_TIM_OC_Start>:
 8001d1c:	b510      	push	{r4, lr}
 8001d1e:	4604      	mov	r4, r0
 8001d20:	b929      	cbnz	r1, 8001d2e <HAL_TIM_OC_Start+0x12>
 8001d22:	f890 303e 	ldrb.w	r3, [r0, #62]	; 0x3e
 8001d26:	2b01      	cmp	r3, #1
 8001d28:	d027      	beq.n	8001d7a <HAL_TIM_OC_Start+0x5e>
 8001d2a:	2001      	movs	r0, #1
 8001d2c:	e049      	b.n	8001dc2 <HAL_TIM_OC_Start+0xa6>
 8001d2e:	2904      	cmp	r1, #4
 8001d30:	d107      	bne.n	8001d42 <HAL_TIM_OC_Start+0x26>
 8001d32:	f890 303f 	ldrb.w	r3, [r0, #63]	; 0x3f
 8001d36:	2b01      	cmp	r3, #1
 8001d38:	d1f7      	bne.n	8001d2a <HAL_TIM_OC_Start+0xe>
 8001d3a:	2302      	movs	r3, #2
 8001d3c:	f880 303f 	strb.w	r3, [r0, #63]	; 0x3f
 8001d40:	e01e      	b.n	8001d80 <HAL_TIM_OC_Start+0x64>
 8001d42:	2908      	cmp	r1, #8
 8001d44:	d10d      	bne.n	8001d62 <HAL_TIM_OC_Start+0x46>
 8001d46:	f890 3040 	ldrb.w	r3, [r0, #64]	; 0x40
 8001d4a:	3b01      	subs	r3, #1
 8001d4c:	bf18      	it	ne
 8001d4e:	2301      	movne	r3, #1
 8001d50:	2b00      	cmp	r3, #0
 8001d52:	d1ea      	bne.n	8001d2a <HAL_TIM_OC_Start+0xe>
 8001d54:	2908      	cmp	r1, #8
 8001d56:	f04f 0302 	mov.w	r3, #2
 8001d5a:	d133      	bne.n	8001dc4 <HAL_TIM_OC_Start+0xa8>
 8001d5c:	f884 3040 	strb.w	r3, [r4, #64]	; 0x40
 8001d60:	e00e      	b.n	8001d80 <HAL_TIM_OC_Start+0x64>
 8001d62:	290c      	cmp	r1, #12
 8001d64:	d102      	bne.n	8001d6c <HAL_TIM_OC_Start+0x50>
 8001d66:	f890 3041 	ldrb.w	r3, [r0, #65]	; 0x41
 8001d6a:	e7ee      	b.n	8001d4a <HAL_TIM_OC_Start+0x2e>
 8001d6c:	2910      	cmp	r1, #16
 8001d6e:	bf0c      	ite	eq
 8001d70:	f890 3042 	ldrbeq.w	r3, [r0, #66]	; 0x42
 8001d74:	f890 3043 	ldrbne.w	r3, [r0, #67]	; 0x43
 8001d78:	e7e7      	b.n	8001d4a <HAL_TIM_OC_Start+0x2e>
 8001d7a:	2302      	movs	r3, #2
 8001d7c:	f880 303e 	strb.w	r3, [r0, #62]	; 0x3e
 8001d80:	2201      	movs	r2, #1
 8001d82:	6820      	ldr	r0, [r4, #0]
 8001d84:	f7ff ffbc 	bl	8001d00 <TIM_CCxChannelCmd>
 8001d88:	6823      	ldr	r3, [r4, #0]
 8001d8a:	4a24      	ldr	r2, [pc, #144]	; (8001e1c <HAL_TIM_OC_Start+0x100>)
 8001d8c:	4293      	cmp	r3, r2
 8001d8e:	d025      	beq.n	8001ddc <HAL_TIM_OC_Start+0xc0>
 8001d90:	f502 6200 	add.w	r2, r2, #2048	; 0x800
 8001d94:	4293      	cmp	r3, r2
 8001d96:	d021      	beq.n	8001ddc <HAL_TIM_OC_Start+0xc0>
 8001d98:	f502 6240 	add.w	r2, r2, #3072	; 0xc00
 8001d9c:	4293      	cmp	r3, r2
 8001d9e:	d01d      	beq.n	8001ddc <HAL_TIM_OC_Start+0xc0>
 8001da0:	f502 6280 	add.w	r2, r2, #1024	; 0x400
 8001da4:	4293      	cmp	r3, r2
 8001da6:	d019      	beq.n	8001ddc <HAL_TIM_OC_Start+0xc0>
 8001da8:	f502 6280 	add.w	r2, r2, #1024	; 0x400
 8001dac:	4293      	cmp	r3, r2
 8001dae:	d015      	beq.n	8001ddc <HAL_TIM_OC_Start+0xc0>
 8001db0:	f1b3 4f80 	cmp.w	r3, #1073741824	; 0x40000000
 8001db4:	d11a      	bne.n	8001dec <HAL_TIM_OC_Start+0xd0>
 8001db6:	6899      	ldr	r1, [r3, #8]
 8001db8:	4a19      	ldr	r2, [pc, #100]	; (8001e20 <HAL_TIM_OC_Start+0x104>)
 8001dba:	400a      	ands	r2, r1
 8001dbc:	2a06      	cmp	r2, #6
 8001dbe:	d129      	bne.n	8001e14 <HAL_TIM_OC_Start+0xf8>
 8001dc0:	2000      	movs	r0, #0
 8001dc2:	bd10      	pop	{r4, pc}
 8001dc4:	290c      	cmp	r1, #12
 8001dc6:	d102      	bne.n	8001dce <HAL_TIM_OC_Start+0xb2>
 8001dc8:	f884 3041 	strb.w	r3, [r4, #65]	; 0x41
 8001dcc:	e7d8      	b.n	8001d80 <HAL_TIM_OC_Start+0x64>
 8001dce:	2910      	cmp	r1, #16
 8001dd0:	bf0c      	ite	eq
 8001dd2:	f884 3042 	strbeq.w	r3, [r4, #66]	; 0x42
 8001dd6:	f884 3043 	strbne.w	r3, [r4, #67]	; 0x43
 8001dda:	e7d1      	b.n	8001d80 <HAL_TIM_OC_Start+0x64>
 8001ddc:	6c5a      	ldr	r2, [r3, #68]	; 0x44
 8001dde:	f442 4200 	orr.w	r2, r2, #32768	; 0x8000
 8001de2:	645a      	str	r2, [r3, #68]	; 0x44
 8001de4:	4a0d      	ldr	r2, [pc, #52]	; (8001e1c <HAL_TIM_OC_Start+0x100>)
 8001de6:	4293      	cmp	r3, r2
 8001de8:	d1e2      	bne.n	8001db0 <HAL_TIM_OC_Start+0x94>
 8001dea:	e7e4      	b.n	8001db6 <HAL_TIM_OC_Start+0x9a>
 8001dec:	4a0d      	ldr	r2, [pc, #52]	; (8001e24 <HAL_TIM_OC_Start+0x108>)
 8001dee:	4293      	cmp	r3, r2
 8001df0:	d0e1      	beq.n	8001db6 <HAL_TIM_OC_Start+0x9a>
 8001df2:	f502 6280 	add.w	r2, r2, #1024	; 0x400
 8001df6:	4293      	cmp	r3, r2
 8001df8:	d0dd      	beq.n	8001db6 <HAL_TIM_OC_Start+0x9a>
 8001dfa:	f502 3296 	add.w	r2, r2, #76800	; 0x12c00
 8001dfe:	4293      	cmp	r3, r2
 8001e00:	d0d9      	beq.n	8001db6 <HAL_TIM_OC_Start+0x9a>
 8001e02:	f502 6240 	add.w	r2, r2, #3072	; 0xc00
 8001e06:	4293      	cmp	r3, r2
 8001e08:	d0d5      	beq.n	8001db6 <HAL_TIM_OC_Start+0x9a>
 8001e0a:	681a      	ldr	r2, [r3, #0]
 8001e0c:	f042 0201 	orr.w	r2, r2, #1
 8001e10:	601a      	str	r2, [r3, #0]
 8001e12:	e7d5      	b.n	8001dc0 <HAL_TIM_OC_Start+0xa4>
 8001e14:	f5b2 3f80 	cmp.w	r2, #65536	; 0x10000
 8001e18:	d1f7      	bne.n	8001e0a <HAL_TIM_OC_Start+0xee>
 8001e1a:	e7d1      	b.n	8001dc0 <HAL_TIM_OC_Start+0xa4>
 8001e1c:	40012c00 	.word	0x40012c00
 8001e20:	00010007 	.word	0x00010007
 8001e24:	40000400 	.word	0x40000400

08001e28 <HAL_TIM_PWM_Start>:
 8001e28:	f7ff bf78 	b.w	8001d1c <HAL_TIM_OC_Start>

08001e2c <HAL_TIMEx_MasterConfigSynchronization>:
 8001e2c:	b530      	push	{r4, r5, lr}
 8001e2e:	f890 303c 	ldrb.w	r3, [r0, #60]	; 0x3c
 8001e32:	2b01      	cmp	r3, #1
 8001e34:	f04f 0302 	mov.w	r3, #2
 8001e38:	d037      	beq.n	8001eaa <HAL_TIMEx_MasterConfigSynchronization+0x7e>
 8001e3a:	f880 303d 	strb.w	r3, [r0, #61]	; 0x3d
 8001e3e:	4d1c      	ldr	r5, [pc, #112]	; (8001eb0 <HAL_TIMEx_MasterConfigSynchronization+0x84>)
 8001e40:	6803      	ldr	r3, [r0, #0]
 8001e42:	42ab      	cmp	r3, r5
 8001e44:	685a      	ldr	r2, [r3, #4]
 8001e46:	689c      	ldr	r4, [r3, #8]
 8001e48:	d003      	beq.n	8001e52 <HAL_TIMEx_MasterConfigSynchronization+0x26>
 8001e4a:	f505 6500 	add.w	r5, r5, #2048	; 0x800
 8001e4e:	42ab      	cmp	r3, r5
 8001e50:	d103      	bne.n	8001e5a <HAL_TIMEx_MasterConfigSynchronization+0x2e>
 8001e52:	684d      	ldr	r5, [r1, #4]
 8001e54:	f422 0270 	bic.w	r2, r2, #15728640	; 0xf00000
 8001e58:	432a      	orrs	r2, r5
 8001e5a:	680d      	ldr	r5, [r1, #0]
 8001e5c:	f022 7200 	bic.w	r2, r2, #33554432	; 0x2000000
 8001e60:	f022 0270 	bic.w	r2, r2, #112	; 0x70
 8001e64:	432a      	orrs	r2, r5
 8001e66:	605a      	str	r2, [r3, #4]
 8001e68:	4a11      	ldr	r2, [pc, #68]	; (8001eb0 <HAL_TIMEx_MasterConfigSynchronization+0x84>)
 8001e6a:	4293      	cmp	r3, r2
 8001e6c:	d012      	beq.n	8001e94 <HAL_TIMEx_MasterConfigSynchronization+0x68>
 8001e6e:	f1b3 4f80 	cmp.w	r3, #1073741824	; 0x40000000
 8001e72:	d00f      	beq.n	8001e94 <HAL_TIMEx_MasterConfigSynchronization+0x68>
 8001e74:	f5a2 3294 	sub.w	r2, r2, #75776	; 0x12800
 8001e78:	4293      	cmp	r3, r2
 8001e7a:	d00b      	beq.n	8001e94 <HAL_TIMEx_MasterConfigSynchronization+0x68>
 8001e7c:	f502 6280 	add.w	r2, r2, #1024	; 0x400
 8001e80:	4293      	cmp	r3, r2
 8001e82:	d007      	beq.n	8001e94 <HAL_TIMEx_MasterConfigSynchronization+0x68>
 8001e84:	f502 3296 	add.w	r2, r2, #76800	; 0x12c00
 8001e88:	4293      	cmp	r3, r2
 8001e8a:	d003      	beq.n	8001e94 <HAL_TIMEx_MasterConfigSynchronization+0x68>
 8001e8c:	f502 6240 	add.w	r2, r2, #3072	; 0xc00
 8001e90:	4293      	cmp	r3, r2
 8001e92:	d104      	bne.n	8001e9e <HAL_TIMEx_MasterConfigSynchronization+0x72>
 8001e94:	6889      	ldr	r1, [r1, #8]
 8001e96:	f024 0280 	bic.w	r2, r4, #128	; 0x80
 8001e9a:	430a      	orrs	r2, r1
 8001e9c:	609a      	str	r2, [r3, #8]
 8001e9e:	2301      	movs	r3, #1
 8001ea0:	f880 303d 	strb.w	r3, [r0, #61]	; 0x3d
 8001ea4:	2300      	movs	r3, #0
 8001ea6:	f880 303c 	strb.w	r3, [r0, #60]	; 0x3c
 8001eaa:	4618      	mov	r0, r3
 8001eac:	bd30      	pop	{r4, r5, pc}
 8001eae:	bf00      	nop
 8001eb0:	40012c00 	.word	0x40012c00

08001eb4 <USB_DisableGlobalInt>:
 8001eb4:	f8b0 3040 	ldrh.w	r3, [r0, #64]	; 0x40
 8001eb8:	f423 537e 	bic.w	r3, r3, #16256	; 0x3f80
 8001ebc:	045b      	lsls	r3, r3, #17
 8001ebe:	0c5b      	lsrs	r3, r3, #17
 8001ec0:	f8a0 3040 	strh.w	r3, [r0, #64]	; 0x40
 8001ec4:	2000      	movs	r0, #0
 8001ec6:	4770      	bx	lr

08001ec8 <USB_DevInit>:
 8001ec8:	b084      	sub	sp, #16
 8001eca:	b510      	push	{r4, lr}
 8001ecc:	ac03      	add	r4, sp, #12
 8001ece:	e884 000e 	stmia.w	r4, {r1, r2, r3}
 8001ed2:	e8bd 4010 	ldmia.w	sp!, {r4, lr}
 8001ed6:	2301      	movs	r3, #1
 8001ed8:	f8a0 3040 	strh.w	r3, [r0, #64]	; 0x40
 8001edc:	2300      	movs	r3, #0
 8001ede:	f8a0 3040 	strh.w	r3, [r0, #64]	; 0x40
 8001ee2:	b004      	add	sp, #16
 8001ee4:	f8a0 3044 	strh.w	r3, [r0, #68]	; 0x44
 8001ee8:	f8a0 3050 	strh.w	r3, [r0, #80]	; 0x50
 8001eec:	4618      	mov	r0, r3
 8001eee:	4770      	bx	lr

08001ef0 <__errno>:
 8001ef0:	4b01      	ldr	r3, [pc, #4]	; (8001ef8 <__errno+0x8>)
 8001ef2:	6818      	ldr	r0, [r3, #0]
 8001ef4:	4770      	bx	lr
 8001ef6:	bf00      	nop
 8001ef8:	2000000c 	.word	0x2000000c

08001efc <__libc_init_array>:
 8001efc:	b570      	push	{r4, r5, r6, lr}
 8001efe:	4d0d      	ldr	r5, [pc, #52]	; (8001f34 <__libc_init_array+0x38>)
 8001f00:	4c0d      	ldr	r4, [pc, #52]	; (8001f38 <__libc_init_array+0x3c>)
 8001f02:	1b64      	subs	r4, r4, r5
 8001f04:	10a4      	asrs	r4, r4, #2
 8001f06:	2600      	movs	r6, #0
 8001f08:	42a6      	cmp	r6, r4
 8001f0a:	d109      	bne.n	8001f20 <__libc_init_array+0x24>
 8001f0c:	4d0b      	ldr	r5, [pc, #44]	; (8001f3c <__libc_init_array+0x40>)
 8001f0e:	4c0c      	ldr	r4, [pc, #48]	; (8001f40 <__libc_init_array+0x44>)
 8001f10:	f000 ffae 	bl	8002e70 <_init>
 8001f14:	1b64      	subs	r4, r4, r5
 8001f16:	10a4      	asrs	r4, r4, #2
 8001f18:	2600      	movs	r6, #0
 8001f1a:	42a6      	cmp	r6, r4
 8001f1c:	d105      	bne.n	8001f2a <__libc_init_array+0x2e>
 8001f1e:	bd70      	pop	{r4, r5, r6, pc}
 8001f20:	f855 3b04 	ldr.w	r3, [r5], #4
 8001f24:	4798      	blx	r3
 8001f26:	3601      	adds	r6, #1
 8001f28:	e7ee      	b.n	8001f08 <__libc_init_array+0xc>
 8001f2a:	f855 3b04 	ldr.w	r3, [r5], #4
 8001f2e:	4798      	blx	r3
 8001f30:	3601      	adds	r6, #1
 8001f32:	e7f2      	b.n	8001f1a <__libc_init_array+0x1e>
 8001f34:	08002f34 	.word	0x08002f34
 8001f38:	08002f34 	.word	0x08002f34
 8001f3c:	08002f34 	.word	0x08002f34
 8001f40:	08002f38 	.word	0x08002f38

08001f44 <memset>:
 8001f44:	4402      	add	r2, r0
 8001f46:	4603      	mov	r3, r0
 8001f48:	4293      	cmp	r3, r2
 8001f4a:	d100      	bne.n	8001f4e <memset+0xa>
 8001f4c:	4770      	bx	lr
 8001f4e:	f803 1b01 	strb.w	r1, [r3], #1
 8001f52:	e7f9      	b.n	8001f48 <memset+0x4>

08001f54 <iprintf>:
 8001f54:	b40f      	push	{r0, r1, r2, r3}
 8001f56:	4b0a      	ldr	r3, [pc, #40]	; (8001f80 <iprintf+0x2c>)
 8001f58:	b513      	push	{r0, r1, r4, lr}
 8001f5a:	681c      	ldr	r4, [r3, #0]
 8001f5c:	b124      	cbz	r4, 8001f68 <iprintf+0x14>
 8001f5e:	69a3      	ldr	r3, [r4, #24]
 8001f60:	b913      	cbnz	r3, 8001f68 <iprintf+0x14>
 8001f62:	4620      	mov	r0, r4
 8001f64:	f000 f866 	bl	8002034 <__sinit>
 8001f68:	ab05      	add	r3, sp, #20
 8001f6a:	9a04      	ldr	r2, [sp, #16]
 8001f6c:	68a1      	ldr	r1, [r4, #8]
 8001f6e:	9301      	str	r3, [sp, #4]
 8001f70:	4620      	mov	r0, r4
 8001f72:	f000 f9bd 	bl	80022f0 <_vfiprintf_r>
 8001f76:	b002      	add	sp, #8
 8001f78:	e8bd 4010 	ldmia.w	sp!, {r4, lr}
 8001f7c:	b004      	add	sp, #16
 8001f7e:	4770      	bx	lr
 8001f80:	2000000c 	.word	0x2000000c

08001f84 <std>:
 8001f84:	2300      	movs	r3, #0
 8001f86:	b510      	push	{r4, lr}
 8001f88:	4604      	mov	r4, r0
 8001f8a:	e9c0 3300 	strd	r3, r3, [r0]
 8001f8e:	e9c0 3304 	strd	r3, r3, [r0, #16]
 8001f92:	6083      	str	r3, [r0, #8]
 8001f94:	8181      	strh	r1, [r0, #12]
 8001f96:	6643      	str	r3, [r0, #100]	; 0x64
 8001f98:	81c2      	strh	r2, [r0, #14]
 8001f9a:	6183      	str	r3, [r0, #24]
 8001f9c:	4619      	mov	r1, r3
 8001f9e:	2208      	movs	r2, #8
 8001fa0:	305c      	adds	r0, #92	; 0x5c
 8001fa2:	f7ff ffcf 	bl	8001f44 <memset>
 8001fa6:	4b05      	ldr	r3, [pc, #20]	; (8001fbc <std+0x38>)
 8001fa8:	6263      	str	r3, [r4, #36]	; 0x24
 8001faa:	4b05      	ldr	r3, [pc, #20]	; (8001fc0 <std+0x3c>)
 8001fac:	62a3      	str	r3, [r4, #40]	; 0x28
 8001fae:	4b05      	ldr	r3, [pc, #20]	; (8001fc4 <std+0x40>)
 8001fb0:	62e3      	str	r3, [r4, #44]	; 0x2c
 8001fb2:	4b05      	ldr	r3, [pc, #20]	; (8001fc8 <std+0x44>)
 8001fb4:	6224      	str	r4, [r4, #32]
 8001fb6:	6323      	str	r3, [r4, #48]	; 0x30
 8001fb8:	bd10      	pop	{r4, pc}
 8001fba:	bf00      	nop
 8001fbc:	08002899 	.word	0x08002899
 8001fc0:	080028bb 	.word	0x080028bb
 8001fc4:	080028f3 	.word	0x080028f3
 8001fc8:	08002917 	.word	0x08002917

08001fcc <_cleanup_r>:
 8001fcc:	4901      	ldr	r1, [pc, #4]	; (8001fd4 <_cleanup_r+0x8>)
 8001fce:	f000 b8af 	b.w	8002130 <_fwalk_reent>
 8001fd2:	bf00      	nop
 8001fd4:	08002bf1 	.word	0x08002bf1

08001fd8 <__sfmoreglue>:
 8001fd8:	b570      	push	{r4, r5, r6, lr}
 8001fda:	2268      	movs	r2, #104	; 0x68
 8001fdc:	1e4d      	subs	r5, r1, #1
 8001fde:	4355      	muls	r5, r2
 8001fe0:	460e      	mov	r6, r1
 8001fe2:	f105 0174 	add.w	r1, r5, #116	; 0x74
 8001fe6:	f000 f8e5 	bl	80021b4 <_malloc_r>
 8001fea:	4604      	mov	r4, r0
 8001fec:	b140      	cbz	r0, 8002000 <__sfmoreglue+0x28>
 8001fee:	2100      	movs	r1, #0
 8001ff0:	e9c0 1600 	strd	r1, r6, [r0]
 8001ff4:	300c      	adds	r0, #12
 8001ff6:	60a0      	str	r0, [r4, #8]
 8001ff8:	f105 0268 	add.w	r2, r5, #104	; 0x68
 8001ffc:	f7ff ffa2 	bl	8001f44 <memset>
 8002000:	4620      	mov	r0, r4
 8002002:	bd70      	pop	{r4, r5, r6, pc}

08002004 <__sfp_lock_acquire>:
 8002004:	4801      	ldr	r0, [pc, #4]	; (800200c <__sfp_lock_acquire+0x8>)
 8002006:	f000 b8b3 	b.w	8002170 <__retarget_lock_acquire_recursive>
 800200a:	bf00      	nop
 800200c:	20000439 	.word	0x20000439

08002010 <__sfp_lock_release>:
 8002010:	4801      	ldr	r0, [pc, #4]	; (8002018 <__sfp_lock_release+0x8>)
 8002012:	f000 b8ae 	b.w	8002172 <__retarget_lock_release_recursive>
 8002016:	bf00      	nop
 8002018:	20000439 	.word	0x20000439

0800201c <__sinit_lock_acquire>:
 800201c:	4801      	ldr	r0, [pc, #4]	; (8002024 <__sinit_lock_acquire+0x8>)
 800201e:	f000 b8a7 	b.w	8002170 <__retarget_lock_acquire_recursive>
 8002022:	bf00      	nop
 8002024:	2000043a 	.word	0x2000043a

08002028 <__sinit_lock_release>:
 8002028:	4801      	ldr	r0, [pc, #4]	; (8002030 <__sinit_lock_release+0x8>)
 800202a:	f000 b8a2 	b.w	8002172 <__retarget_lock_release_recursive>
 800202e:	bf00      	nop
 8002030:	2000043a 	.word	0x2000043a

08002034 <__sinit>:
 8002034:	b510      	push	{r4, lr}
 8002036:	4604      	mov	r4, r0
 8002038:	f7ff fff0 	bl	800201c <__sinit_lock_acquire>
 800203c:	69a3      	ldr	r3, [r4, #24]
 800203e:	b11b      	cbz	r3, 8002048 <__sinit+0x14>
 8002040:	e8bd 4010 	ldmia.w	sp!, {r4, lr}
 8002044:	f7ff bff0 	b.w	8002028 <__sinit_lock_release>
 8002048:	e9c4 3312 	strd	r3, r3, [r4, #72]	; 0x48
 800204c:	6523      	str	r3, [r4, #80]	; 0x50
 800204e:	4b13      	ldr	r3, [pc, #76]	; (800209c <__sinit+0x68>)
 8002050:	4a13      	ldr	r2, [pc, #76]	; (80020a0 <__sinit+0x6c>)
 8002052:	681b      	ldr	r3, [r3, #0]
 8002054:	62a2      	str	r2, [r4, #40]	; 0x28
 8002056:	42a3      	cmp	r3, r4
 8002058:	bf04      	itt	eq
 800205a:	2301      	moveq	r3, #1
 800205c:	61a3      	streq	r3, [r4, #24]
 800205e:	4620      	mov	r0, r4
 8002060:	f000 f820 	bl	80020a4 <__sfp>
 8002064:	6060      	str	r0, [r4, #4]
 8002066:	4620      	mov	r0, r4
 8002068:	f000 f81c 	bl	80020a4 <__sfp>
 800206c:	60a0      	str	r0, [r4, #8]
 800206e:	4620      	mov	r0, r4
 8002070:	f000 f818 	bl	80020a4 <__sfp>
 8002074:	2200      	movs	r2, #0
 8002076:	60e0      	str	r0, [r4, #12]
 8002078:	2104      	movs	r1, #4
 800207a:	6860      	ldr	r0, [r4, #4]
 800207c:	f7ff ff82 	bl	8001f84 <std>
 8002080:	68a0      	ldr	r0, [r4, #8]
 8002082:	2201      	movs	r2, #1
 8002084:	2109      	movs	r1, #9
 8002086:	f7ff ff7d 	bl	8001f84 <std>
 800208a:	68e0      	ldr	r0, [r4, #12]
 800208c:	2202      	movs	r2, #2
 800208e:	2112      	movs	r1, #18
 8002090:	f7ff ff78 	bl	8001f84 <std>
 8002094:	2301      	movs	r3, #1
 8002096:	61a3      	str	r3, [r4, #24]
 8002098:	e7d2      	b.n	8002040 <__sinit+0xc>
 800209a:	bf00      	nop
 800209c:	08002e9c 	.word	0x08002e9c
 80020a0:	08001fcd 	.word	0x08001fcd

080020a4 <__sfp>:
 80020a4:	b5f8      	push	{r3, r4, r5, r6, r7, lr}
 80020a6:	4607      	mov	r7, r0
 80020a8:	f7ff ffac 	bl	8002004 <__sfp_lock_acquire>
 80020ac:	4b1e      	ldr	r3, [pc, #120]	; (8002128 <__sfp+0x84>)
 80020ae:	681e      	ldr	r6, [r3, #0]
 80020b0:	69b3      	ldr	r3, [r6, #24]
 80020b2:	b913      	cbnz	r3, 80020ba <__sfp+0x16>
 80020b4:	4630      	mov	r0, r6
 80020b6:	f7ff ffbd 	bl	8002034 <__sinit>
 80020ba:	3648      	adds	r6, #72	; 0x48
 80020bc:	e9d6 3401 	ldrd	r3, r4, [r6, #4]
 80020c0:	3b01      	subs	r3, #1
 80020c2:	d503      	bpl.n	80020cc <__sfp+0x28>
 80020c4:	6833      	ldr	r3, [r6, #0]
 80020c6:	b30b      	cbz	r3, 800210c <__sfp+0x68>
 80020c8:	6836      	ldr	r6, [r6, #0]
 80020ca:	e7f7      	b.n	80020bc <__sfp+0x18>
 80020cc:	f9b4 500c 	ldrsh.w	r5, [r4, #12]
 80020d0:	b9d5      	cbnz	r5, 8002108 <__sfp+0x64>
 80020d2:	4b16      	ldr	r3, [pc, #88]	; (800212c <__sfp+0x88>)
 80020d4:	60e3      	str	r3, [r4, #12]
 80020d6:	f104 0058 	add.w	r0, r4, #88	; 0x58
 80020da:	6665      	str	r5, [r4, #100]	; 0x64
 80020dc:	f000 f847 	bl	800216e <__retarget_lock_init_recursive>
 80020e0:	f7ff ff96 	bl	8002010 <__sfp_lock_release>
 80020e4:	e9c4 5501 	strd	r5, r5, [r4, #4]
 80020e8:	e9c4 5504 	strd	r5, r5, [r4, #16]
 80020ec:	6025      	str	r5, [r4, #0]
 80020ee:	61a5      	str	r5, [r4, #24]
 80020f0:	2208      	movs	r2, #8
 80020f2:	4629      	mov	r1, r5
 80020f4:	f104 005c 	add.w	r0, r4, #92	; 0x5c
 80020f8:	f7ff ff24 	bl	8001f44 <memset>
 80020fc:	e9c4 550d 	strd	r5, r5, [r4, #52]	; 0x34
 8002100:	e9c4 5512 	strd	r5, r5, [r4, #72]	; 0x48
 8002104:	4620      	mov	r0, r4
 8002106:	bdf8      	pop	{r3, r4, r5, r6, r7, pc}
 8002108:	3468      	adds	r4, #104	; 0x68
 800210a:	e7d9      	b.n	80020c0 <__sfp+0x1c>
 800210c:	2104      	movs	r1, #4
 800210e:	4638      	mov	r0, r7
 8002110:	f7ff ff62 	bl	8001fd8 <__sfmoreglue>
 8002114:	4604      	mov	r4, r0
 8002116:	6030      	str	r0, [r6, #0]
 8002118:	2800      	cmp	r0, #0
 800211a:	d1d5      	bne.n	80020c8 <__sfp+0x24>
 800211c:	f7ff ff78 	bl	8002010 <__sfp_lock_release>
 8002120:	230c      	movs	r3, #12
 8002122:	603b      	str	r3, [r7, #0]
 8002124:	e7ee      	b.n	8002104 <__sfp+0x60>
 8002126:	bf00      	nop
 8002128:	08002e9c 	.word	0x08002e9c
 800212c:	ffff0001 	.word	0xffff0001

08002130 <_fwalk_reent>:
 8002130:	e92d 43f8 	stmdb	sp!, {r3, r4, r5, r6, r7, r8, r9, lr}
 8002134:	4606      	mov	r6, r0
 8002136:	4688      	mov	r8, r1
 8002138:	f100 0448 	add.w	r4, r0, #72	; 0x48
 800213c:	2700      	movs	r7, #0
 800213e:	e9d4 9501 	ldrd	r9, r5, [r4, #4]
 8002142:	f1b9 0901 	subs.w	r9, r9, #1
 8002146:	d505      	bpl.n	8002154 <_fwalk_reent+0x24>
 8002148:	6824      	ldr	r4, [r4, #0]
 800214a:	2c00      	cmp	r4, #0
 800214c:	d1f7      	bne.n	800213e <_fwalk_reent+0xe>
 800214e:	4638      	mov	r0, r7
 8002150:	e8bd 83f8 	ldmia.w	sp!, {r3, r4, r5, r6, r7, r8, r9, pc}
 8002154:	89ab      	ldrh	r3, [r5, #12]
 8002156:	2b01      	cmp	r3, #1
 8002158:	d907      	bls.n	800216a <_fwalk_reent+0x3a>
 800215a:	f9b5 300e 	ldrsh.w	r3, [r5, #14]
 800215e:	3301      	adds	r3, #1
 8002160:	d003      	beq.n	800216a <_fwalk_reent+0x3a>
 8002162:	4629      	mov	r1, r5
 8002164:	4630      	mov	r0, r6
 8002166:	47c0      	blx	r8
 8002168:	4307      	orrs	r7, r0
 800216a:	3568      	adds	r5, #104	; 0x68
 800216c:	e7e9      	b.n	8002142 <_fwalk_reent+0x12>

0800216e <__retarget_lock_init_recursive>:
 800216e:	4770      	bx	lr

08002170 <__retarget_lock_acquire_recursive>:
 8002170:	4770      	bx	lr

08002172 <__retarget_lock_release_recursive>:
 8002172:	4770      	bx	lr

08002174 <sbrk_aligned>:
 8002174:	b570      	push	{r4, r5, r6, lr}
 8002176:	4e0e      	ldr	r6, [pc, #56]	; (80021b0 <sbrk_aligned+0x3c>)
 8002178:	460c      	mov	r4, r1
 800217a:	6831      	ldr	r1, [r6, #0]
 800217c:	4605      	mov	r5, r0
 800217e:	b911      	cbnz	r1, 8002186 <sbrk_aligned+0x12>
 8002180:	f000 fb7a 	bl	8002878 <_sbrk_r>
 8002184:	6030      	str	r0, [r6, #0]
 8002186:	4621      	mov	r1, r4
 8002188:	4628      	mov	r0, r5
 800218a:	f000 fb75 	bl	8002878 <_sbrk_r>
 800218e:	1c43      	adds	r3, r0, #1
 8002190:	d00a      	beq.n	80021a8 <sbrk_aligned+0x34>
 8002192:	1cc4      	adds	r4, r0, #3
 8002194:	f024 0403 	bic.w	r4, r4, #3
 8002198:	42a0      	cmp	r0, r4
 800219a:	d007      	beq.n	80021ac <sbrk_aligned+0x38>
 800219c:	1a21      	subs	r1, r4, r0
 800219e:	4628      	mov	r0, r5
 80021a0:	f000 fb6a 	bl	8002878 <_sbrk_r>
 80021a4:	3001      	adds	r0, #1
 80021a6:	d101      	bne.n	80021ac <sbrk_aligned+0x38>
 80021a8:	f04f 34ff 	mov.w	r4, #4294967295	; 0xffffffff
 80021ac:	4620      	mov	r0, r4
 80021ae:	bd70      	pop	{r4, r5, r6, pc}
 80021b0:	20000440 	.word	0x20000440

080021b4 <_malloc_r>:
 80021b4:	e92d 41f0 	stmdb	sp!, {r4, r5, r6, r7, r8, lr}
 80021b8:	1ccd      	adds	r5, r1, #3
 80021ba:	f025 0503 	bic.w	r5, r5, #3
 80021be:	3508      	adds	r5, #8
 80021c0:	2d0c      	cmp	r5, #12
 80021c2:	bf38      	it	cc
 80021c4:	250c      	movcc	r5, #12
 80021c6:	2d00      	cmp	r5, #0
 80021c8:	4607      	mov	r7, r0
 80021ca:	db01      	blt.n	80021d0 <_malloc_r+0x1c>
 80021cc:	42a9      	cmp	r1, r5
 80021ce:	d905      	bls.n	80021dc <_malloc_r+0x28>
 80021d0:	230c      	movs	r3, #12
 80021d2:	603b      	str	r3, [r7, #0]
 80021d4:	2600      	movs	r6, #0
 80021d6:	4630      	mov	r0, r6
 80021d8:	e8bd 81f0 	ldmia.w	sp!, {r4, r5, r6, r7, r8, pc}
 80021dc:	4e2e      	ldr	r6, [pc, #184]	; (8002298 <_malloc_r+0xe4>)
 80021de:	f000 fdbb 	bl	8002d58 <__malloc_lock>
 80021e2:	6833      	ldr	r3, [r6, #0]
 80021e4:	461c      	mov	r4, r3
 80021e6:	bb34      	cbnz	r4, 8002236 <_malloc_r+0x82>
 80021e8:	4629      	mov	r1, r5
 80021ea:	4638      	mov	r0, r7
 80021ec:	f7ff ffc2 	bl	8002174 <sbrk_aligned>
 80021f0:	1c43      	adds	r3, r0, #1
 80021f2:	4604      	mov	r4, r0
 80021f4:	d14d      	bne.n	8002292 <_malloc_r+0xde>
 80021f6:	6834      	ldr	r4, [r6, #0]
 80021f8:	4626      	mov	r6, r4
 80021fa:	2e00      	cmp	r6, #0
 80021fc:	d140      	bne.n	8002280 <_malloc_r+0xcc>
 80021fe:	6823      	ldr	r3, [r4, #0]
 8002200:	4631      	mov	r1, r6
 8002202:	4638      	mov	r0, r7
 8002204:	eb04 0803 	add.w	r8, r4, r3
 8002208:	f000 fb36 	bl	8002878 <_sbrk_r>
 800220c:	4580      	cmp	r8, r0
 800220e:	d13a      	bne.n	8002286 <_malloc_r+0xd2>
 8002210:	6821      	ldr	r1, [r4, #0]
 8002212:	3503      	adds	r5, #3
 8002214:	1a6d      	subs	r5, r5, r1
 8002216:	f025 0503 	bic.w	r5, r5, #3
 800221a:	3508      	adds	r5, #8
 800221c:	2d0c      	cmp	r5, #12
 800221e:	bf38      	it	cc
 8002220:	250c      	movcc	r5, #12
 8002222:	4629      	mov	r1, r5
 8002224:	4638      	mov	r0, r7
 8002226:	f7ff ffa5 	bl	8002174 <sbrk_aligned>
 800222a:	3001      	adds	r0, #1
 800222c:	d02b      	beq.n	8002286 <_malloc_r+0xd2>
 800222e:	6823      	ldr	r3, [r4, #0]
 8002230:	442b      	add	r3, r5
 8002232:	6023      	str	r3, [r4, #0]
 8002234:	e00e      	b.n	8002254 <_malloc_r+0xa0>
 8002236:	6822      	ldr	r2, [r4, #0]
 8002238:	1b52      	subs	r2, r2, r5
 800223a:	d41e      	bmi.n	800227a <_malloc_r+0xc6>
 800223c:	2a0b      	cmp	r2, #11
 800223e:	d916      	bls.n	800226e <_malloc_r+0xba>
 8002240:	1961      	adds	r1, r4, r5
 8002242:	42a3      	cmp	r3, r4
 8002244:	6025      	str	r5, [r4, #0]
 8002246:	bf18      	it	ne
 8002248:	6059      	strne	r1, [r3, #4]
 800224a:	6863      	ldr	r3, [r4, #4]
 800224c:	bf08      	it	eq
 800224e:	6031      	streq	r1, [r6, #0]
 8002250:	5162      	str	r2, [r4, r5]
 8002252:	604b      	str	r3, [r1, #4]
 8002254:	4638      	mov	r0, r7
 8002256:	f104 060b 	add.w	r6, r4, #11
 800225a:	f000 fd83 	bl	8002d64 <__malloc_unlock>
 800225e:	f026 0607 	bic.w	r6, r6, #7
 8002262:	1d23      	adds	r3, r4, #4
 8002264:	1af2      	subs	r2, r6, r3
 8002266:	d0b6      	beq.n	80021d6 <_malloc_r+0x22>
 8002268:	1b9b      	subs	r3, r3, r6
 800226a:	50a3      	str	r3, [r4, r2]
 800226c:	e7b3      	b.n	80021d6 <_malloc_r+0x22>
 800226e:	6862      	ldr	r2, [r4, #4]
 8002270:	42a3      	cmp	r3, r4
 8002272:	bf0c      	ite	eq
 8002274:	6032      	streq	r2, [r6, #0]
 8002276:	605a      	strne	r2, [r3, #4]
 8002278:	e7ec      	b.n	8002254 <_malloc_r+0xa0>
 800227a:	4623      	mov	r3, r4
 800227c:	6864      	ldr	r4, [r4, #4]
 800227e:	e7b2      	b.n	80021e6 <_malloc_r+0x32>
 8002280:	4634      	mov	r4, r6
 8002282:	6876      	ldr	r6, [r6, #4]
 8002284:	e7b9      	b.n	80021fa <_malloc_r+0x46>
 8002286:	230c      	movs	r3, #12
 8002288:	603b      	str	r3, [r7, #0]
 800228a:	4638      	mov	r0, r7
 800228c:	f000 fd6a 	bl	8002d64 <__malloc_unlock>
 8002290:	e7a1      	b.n	80021d6 <_malloc_r+0x22>
 8002292:	6025      	str	r5, [r4, #0]
 8002294:	e7de      	b.n	8002254 <_malloc_r+0xa0>
 8002296:	bf00      	nop
 8002298:	2000043c 	.word	0x2000043c

0800229c <__sfputc_r>:
 800229c:	6893      	ldr	r3, [r2, #8]
 800229e:	3b01      	subs	r3, #1
 80022a0:	2b00      	cmp	r3, #0
 80022a2:	b410      	push	{r4}
 80022a4:	6093      	str	r3, [r2, #8]
 80022a6:	da08      	bge.n	80022ba <__sfputc_r+0x1e>
 80022a8:	6994      	ldr	r4, [r2, #24]
 80022aa:	42a3      	cmp	r3, r4
 80022ac:	db01      	blt.n	80022b2 <__sfputc_r+0x16>
 80022ae:	290a      	cmp	r1, #10
 80022b0:	d103      	bne.n	80022ba <__sfputc_r+0x1e>
 80022b2:	f85d 4b04 	ldr.w	r4, [sp], #4
 80022b6:	f000 bb33 	b.w	8002920 <__swbuf_r>
 80022ba:	6813      	ldr	r3, [r2, #0]
 80022bc:	1c58      	adds	r0, r3, #1
 80022be:	6010      	str	r0, [r2, #0]
 80022c0:	7019      	strb	r1, [r3, #0]
 80022c2:	4608      	mov	r0, r1
 80022c4:	f85d 4b04 	ldr.w	r4, [sp], #4
 80022c8:	4770      	bx	lr

080022ca <__sfputs_r>:
 80022ca:	b5f8      	push	{r3, r4, r5, r6, r7, lr}
 80022cc:	4606      	mov	r6, r0
 80022ce:	460f      	mov	r7, r1
 80022d0:	4614      	mov	r4, r2
 80022d2:	18d5      	adds	r5, r2, r3
 80022d4:	42ac      	cmp	r4, r5
 80022d6:	d101      	bne.n	80022dc <__sfputs_r+0x12>
 80022d8:	2000      	movs	r0, #0
 80022da:	e007      	b.n	80022ec <__sfputs_r+0x22>
 80022dc:	f814 1b01 	ldrb.w	r1, [r4], #1
 80022e0:	463a      	mov	r2, r7
 80022e2:	4630      	mov	r0, r6
 80022e4:	f7ff ffda 	bl	800229c <__sfputc_r>
 80022e8:	1c43      	adds	r3, r0, #1
 80022ea:	d1f3      	bne.n	80022d4 <__sfputs_r+0xa>
 80022ec:	bdf8      	pop	{r3, r4, r5, r6, r7, pc}
	...

080022f0 <_vfiprintf_r>:
 80022f0:	e92d 4ff0 	stmdb	sp!, {r4, r5, r6, r7, r8, r9, sl, fp, lr}
 80022f4:	460d      	mov	r5, r1
 80022f6:	b09d      	sub	sp, #116	; 0x74
 80022f8:	4614      	mov	r4, r2
 80022fa:	4698      	mov	r8, r3
 80022fc:	4606      	mov	r6, r0
 80022fe:	b118      	cbz	r0, 8002308 <_vfiprintf_r+0x18>
 8002300:	6983      	ldr	r3, [r0, #24]
 8002302:	b90b      	cbnz	r3, 8002308 <_vfiprintf_r+0x18>
 8002304:	f7ff fe96 	bl	8002034 <__sinit>
 8002308:	4b89      	ldr	r3, [pc, #548]	; (8002530 <_vfiprintf_r+0x240>)
 800230a:	429d      	cmp	r5, r3
 800230c:	d11b      	bne.n	8002346 <_vfiprintf_r+0x56>
 800230e:	6875      	ldr	r5, [r6, #4]
 8002310:	6e6b      	ldr	r3, [r5, #100]	; 0x64
 8002312:	07d9      	lsls	r1, r3, #31
 8002314:	d405      	bmi.n	8002322 <_vfiprintf_r+0x32>
 8002316:	89ab      	ldrh	r3, [r5, #12]
 8002318:	059a      	lsls	r2, r3, #22
 800231a:	d402      	bmi.n	8002322 <_vfiprintf_r+0x32>
 800231c:	6da8      	ldr	r0, [r5, #88]	; 0x58
 800231e:	f7ff ff27 	bl	8002170 <__retarget_lock_acquire_recursive>
 8002322:	89ab      	ldrh	r3, [r5, #12]
 8002324:	071b      	lsls	r3, r3, #28
 8002326:	d501      	bpl.n	800232c <_vfiprintf_r+0x3c>
 8002328:	692b      	ldr	r3, [r5, #16]
 800232a:	b9eb      	cbnz	r3, 8002368 <_vfiprintf_r+0x78>
 800232c:	4629      	mov	r1, r5
 800232e:	4630      	mov	r0, r6
 8002330:	f000 fb5a 	bl	80029e8 <__swsetup_r>
 8002334:	b1c0      	cbz	r0, 8002368 <_vfiprintf_r+0x78>
 8002336:	6e6b      	ldr	r3, [r5, #100]	; 0x64
 8002338:	07dc      	lsls	r4, r3, #31
 800233a:	d50e      	bpl.n	800235a <_vfiprintf_r+0x6a>
 800233c:	f04f 30ff 	mov.w	r0, #4294967295	; 0xffffffff
 8002340:	b01d      	add	sp, #116	; 0x74
 8002342:	e8bd 8ff0 	ldmia.w	sp!, {r4, r5, r6, r7, r8, r9, sl, fp, pc}
 8002346:	4b7b      	ldr	r3, [pc, #492]	; (8002534 <_vfiprintf_r+0x244>)
 8002348:	429d      	cmp	r5, r3
 800234a:	d101      	bne.n	8002350 <_vfiprintf_r+0x60>
 800234c:	68b5      	ldr	r5, [r6, #8]
 800234e:	e7df      	b.n	8002310 <_vfiprintf_r+0x20>
 8002350:	4b79      	ldr	r3, [pc, #484]	; (8002538 <_vfiprintf_r+0x248>)
 8002352:	429d      	cmp	r5, r3
 8002354:	bf08      	it	eq
 8002356:	68f5      	ldreq	r5, [r6, #12]
 8002358:	e7da      	b.n	8002310 <_vfiprintf_r+0x20>
 800235a:	89ab      	ldrh	r3, [r5, #12]
 800235c:	0598      	lsls	r0, r3, #22
 800235e:	d4ed      	bmi.n	800233c <_vfiprintf_r+0x4c>
 8002360:	6da8      	ldr	r0, [r5, #88]	; 0x58
 8002362:	f7ff ff06 	bl	8002172 <__retarget_lock_release_recursive>
 8002366:	e7e9      	b.n	800233c <_vfiprintf_r+0x4c>
 8002368:	2300      	movs	r3, #0
 800236a:	9309      	str	r3, [sp, #36]	; 0x24
 800236c:	2320      	movs	r3, #32
 800236e:	f88d 3029 	strb.w	r3, [sp, #41]	; 0x29
 8002372:	f8cd 800c 	str.w	r8, [sp, #12]
 8002376:	2330      	movs	r3, #48	; 0x30
 8002378:	f8df 81c0 	ldr.w	r8, [pc, #448]	; 800253c <_vfiprintf_r+0x24c>
 800237c:	f88d 302a 	strb.w	r3, [sp, #42]	; 0x2a
 8002380:	f04f 0901 	mov.w	r9, #1
 8002384:	4623      	mov	r3, r4
 8002386:	469a      	mov	sl, r3
 8002388:	f813 2b01 	ldrb.w	r2, [r3], #1
 800238c:	b10a      	cbz	r2, 8002392 <_vfiprintf_r+0xa2>
 800238e:	2a25      	cmp	r2, #37	; 0x25
 8002390:	d1f9      	bne.n	8002386 <_vfiprintf_r+0x96>
 8002392:	ebba 0b04 	subs.w	fp, sl, r4
 8002396:	d00b      	beq.n	80023b0 <_vfiprintf_r+0xc0>
 8002398:	465b      	mov	r3, fp
 800239a:	4622      	mov	r2, r4
 800239c:	4629      	mov	r1, r5
 800239e:	4630      	mov	r0, r6
 80023a0:	f7ff ff93 	bl	80022ca <__sfputs_r>
 80023a4:	3001      	adds	r0, #1
 80023a6:	f000 80aa 	beq.w	80024fe <_vfiprintf_r+0x20e>
 80023aa:	9a09      	ldr	r2, [sp, #36]	; 0x24
 80023ac:	445a      	add	r2, fp
 80023ae:	9209      	str	r2, [sp, #36]	; 0x24
 80023b0:	f89a 3000 	ldrb.w	r3, [sl]
 80023b4:	2b00      	cmp	r3, #0
 80023b6:	f000 80a2 	beq.w	80024fe <_vfiprintf_r+0x20e>
 80023ba:	2300      	movs	r3, #0
 80023bc:	f04f 32ff 	mov.w	r2, #4294967295	; 0xffffffff
 80023c0:	e9cd 2305 	strd	r2, r3, [sp, #20]
 80023c4:	f10a 0a01 	add.w	sl, sl, #1
 80023c8:	9304      	str	r3, [sp, #16]
 80023ca:	9307      	str	r3, [sp, #28]
 80023cc:	f88d 3053 	strb.w	r3, [sp, #83]	; 0x53
 80023d0:	931a      	str	r3, [sp, #104]	; 0x68
 80023d2:	4654      	mov	r4, sl
 80023d4:	2205      	movs	r2, #5
 80023d6:	f814 1b01 	ldrb.w	r1, [r4], #1
 80023da:	4858      	ldr	r0, [pc, #352]	; (800253c <_vfiprintf_r+0x24c>)
 80023dc:	f7fd ff20 	bl	8000220 <memchr>
 80023e0:	9a04      	ldr	r2, [sp, #16]
 80023e2:	b9d8      	cbnz	r0, 800241c <_vfiprintf_r+0x12c>
 80023e4:	06d1      	lsls	r1, r2, #27
 80023e6:	bf44      	itt	mi
 80023e8:	2320      	movmi	r3, #32
 80023ea:	f88d 3053 	strbmi.w	r3, [sp, #83]	; 0x53
 80023ee:	0713      	lsls	r3, r2, #28
 80023f0:	bf44      	itt	mi
 80023f2:	232b      	movmi	r3, #43	; 0x2b
 80023f4:	f88d 3053 	strbmi.w	r3, [sp, #83]	; 0x53
 80023f8:	f89a 3000 	ldrb.w	r3, [sl]
 80023fc:	2b2a      	cmp	r3, #42	; 0x2a
 80023fe:	d015      	beq.n	800242c <_vfiprintf_r+0x13c>
 8002400:	9a07      	ldr	r2, [sp, #28]
 8002402:	4654      	mov	r4, sl
 8002404:	2000      	movs	r0, #0
 8002406:	f04f 0c0a 	mov.w	ip, #10
 800240a:	4621      	mov	r1, r4
 800240c:	f811 3b01 	ldrb.w	r3, [r1], #1
 8002410:	3b30      	subs	r3, #48	; 0x30
 8002412:	2b09      	cmp	r3, #9
 8002414:	d94e      	bls.n	80024b4 <_vfiprintf_r+0x1c4>
 8002416:	b1b0      	cbz	r0, 8002446 <_vfiprintf_r+0x156>
 8002418:	9207      	str	r2, [sp, #28]
 800241a:	e014      	b.n	8002446 <_vfiprintf_r+0x156>
 800241c:	eba0 0308 	sub.w	r3, r0, r8
 8002420:	fa09 f303 	lsl.w	r3, r9, r3
 8002424:	4313      	orrs	r3, r2
 8002426:	9304      	str	r3, [sp, #16]
 8002428:	46a2      	mov	sl, r4
 800242a:	e7d2      	b.n	80023d2 <_vfiprintf_r+0xe2>
 800242c:	9b03      	ldr	r3, [sp, #12]
 800242e:	1d19      	adds	r1, r3, #4
 8002430:	681b      	ldr	r3, [r3, #0]
 8002432:	9103      	str	r1, [sp, #12]
 8002434:	2b00      	cmp	r3, #0
 8002436:	bfbb      	ittet	lt
 8002438:	425b      	neglt	r3, r3
 800243a:	f042 0202 	orrlt.w	r2, r2, #2
 800243e:	9307      	strge	r3, [sp, #28]
 8002440:	9307      	strlt	r3, [sp, #28]
 8002442:	bfb8      	it	lt
 8002444:	9204      	strlt	r2, [sp, #16]
 8002446:	7823      	ldrb	r3, [r4, #0]
 8002448:	2b2e      	cmp	r3, #46	; 0x2e
 800244a:	d10c      	bne.n	8002466 <_vfiprintf_r+0x176>
 800244c:	7863      	ldrb	r3, [r4, #1]
 800244e:	2b2a      	cmp	r3, #42	; 0x2a
 8002450:	d135      	bne.n	80024be <_vfiprintf_r+0x1ce>
 8002452:	9b03      	ldr	r3, [sp, #12]
 8002454:	1d1a      	adds	r2, r3, #4
 8002456:	681b      	ldr	r3, [r3, #0]
 8002458:	9203      	str	r2, [sp, #12]
 800245a:	2b00      	cmp	r3, #0
 800245c:	bfb8      	it	lt
 800245e:	f04f 33ff 	movlt.w	r3, #4294967295	; 0xffffffff
 8002462:	3402      	adds	r4, #2
 8002464:	9305      	str	r3, [sp, #20]
 8002466:	f8df a0e4 	ldr.w	sl, [pc, #228]	; 800254c <_vfiprintf_r+0x25c>
 800246a:	7821      	ldrb	r1, [r4, #0]
 800246c:	2203      	movs	r2, #3
 800246e:	4650      	mov	r0, sl
 8002470:	f7fd fed6 	bl	8000220 <memchr>
 8002474:	b140      	cbz	r0, 8002488 <_vfiprintf_r+0x198>
 8002476:	2340      	movs	r3, #64	; 0x40
 8002478:	eba0 000a 	sub.w	r0, r0, sl
 800247c:	fa03 f000 	lsl.w	r0, r3, r0
 8002480:	9b04      	ldr	r3, [sp, #16]
 8002482:	4303      	orrs	r3, r0
 8002484:	3401      	adds	r4, #1
 8002486:	9304      	str	r3, [sp, #16]
 8002488:	f814 1b01 	ldrb.w	r1, [r4], #1
 800248c:	482c      	ldr	r0, [pc, #176]	; (8002540 <_vfiprintf_r+0x250>)
 800248e:	f88d 1028 	strb.w	r1, [sp, #40]	; 0x28
 8002492:	2206      	movs	r2, #6
 8002494:	f7fd fec4 	bl	8000220 <memchr>
 8002498:	2800      	cmp	r0, #0
 800249a:	d03f      	beq.n	800251c <_vfiprintf_r+0x22c>
 800249c:	4b29      	ldr	r3, [pc, #164]	; (8002544 <_vfiprintf_r+0x254>)
 800249e:	bb1b      	cbnz	r3, 80024e8 <_vfiprintf_r+0x1f8>
 80024a0:	9b03      	ldr	r3, [sp, #12]
 80024a2:	3307      	adds	r3, #7
 80024a4:	f023 0307 	bic.w	r3, r3, #7
 80024a8:	3308      	adds	r3, #8
 80024aa:	9303      	str	r3, [sp, #12]
 80024ac:	9b09      	ldr	r3, [sp, #36]	; 0x24
 80024ae:	443b      	add	r3, r7
 80024b0:	9309      	str	r3, [sp, #36]	; 0x24
 80024b2:	e767      	b.n	8002384 <_vfiprintf_r+0x94>
 80024b4:	fb0c 3202 	mla	r2, ip, r2, r3
 80024b8:	460c      	mov	r4, r1
 80024ba:	2001      	movs	r0, #1
 80024bc:	e7a5      	b.n	800240a <_vfiprintf_r+0x11a>
 80024be:	2300      	movs	r3, #0
 80024c0:	3401      	adds	r4, #1
 80024c2:	9305      	str	r3, [sp, #20]
 80024c4:	4619      	mov	r1, r3
 80024c6:	f04f 0c0a 	mov.w	ip, #10
 80024ca:	4620      	mov	r0, r4
 80024cc:	f810 2b01 	ldrb.w	r2, [r0], #1
 80024d0:	3a30      	subs	r2, #48	; 0x30
 80024d2:	2a09      	cmp	r2, #9
 80024d4:	d903      	bls.n	80024de <_vfiprintf_r+0x1ee>
 80024d6:	2b00      	cmp	r3, #0
 80024d8:	d0c5      	beq.n	8002466 <_vfiprintf_r+0x176>
 80024da:	9105      	str	r1, [sp, #20]
 80024dc:	e7c3      	b.n	8002466 <_vfiprintf_r+0x176>
 80024de:	fb0c 2101 	mla	r1, ip, r1, r2
 80024e2:	4604      	mov	r4, r0
 80024e4:	2301      	movs	r3, #1
 80024e6:	e7f0      	b.n	80024ca <_vfiprintf_r+0x1da>
 80024e8:	ab03      	add	r3, sp, #12
 80024ea:	9300      	str	r3, [sp, #0]
 80024ec:	462a      	mov	r2, r5
 80024ee:	4b16      	ldr	r3, [pc, #88]	; (8002548 <_vfiprintf_r+0x258>)
 80024f0:	a904      	add	r1, sp, #16
 80024f2:	4630      	mov	r0, r6
 80024f4:	f3af 8000 	nop.w
 80024f8:	4607      	mov	r7, r0
 80024fa:	1c78      	adds	r0, r7, #1
 80024fc:	d1d6      	bne.n	80024ac <_vfiprintf_r+0x1bc>
 80024fe:	6e6b      	ldr	r3, [r5, #100]	; 0x64
 8002500:	07d9      	lsls	r1, r3, #31
 8002502:	d405      	bmi.n	8002510 <_vfiprintf_r+0x220>
 8002504:	89ab      	ldrh	r3, [r5, #12]
 8002506:	059a      	lsls	r2, r3, #22
 8002508:	d402      	bmi.n	8002510 <_vfiprintf_r+0x220>
 800250a:	6da8      	ldr	r0, [r5, #88]	; 0x58
 800250c:	f7ff fe31 	bl	8002172 <__retarget_lock_release_recursive>
 8002510:	89ab      	ldrh	r3, [r5, #12]
 8002512:	065b      	lsls	r3, r3, #25
 8002514:	f53f af12 	bmi.w	800233c <_vfiprintf_r+0x4c>
 8002518:	9809      	ldr	r0, [sp, #36]	; 0x24
 800251a:	e711      	b.n	8002340 <_vfiprintf_r+0x50>
 800251c:	ab03      	add	r3, sp, #12
 800251e:	9300      	str	r3, [sp, #0]
 8002520:	462a      	mov	r2, r5
 8002522:	4b09      	ldr	r3, [pc, #36]	; (8002548 <_vfiprintf_r+0x258>)
 8002524:	a904      	add	r1, sp, #16
 8002526:	4630      	mov	r0, r6
 8002528:	f000 f880 	bl	800262c <_printf_i>
 800252c:	e7e4      	b.n	80024f8 <_vfiprintf_r+0x208>
 800252e:	bf00      	nop
 8002530:	08002ec0 	.word	0x08002ec0
 8002534:	08002ee0 	.word	0x08002ee0
 8002538:	08002ea0 	.word	0x08002ea0
 800253c:	08002f00 	.word	0x08002f00
 8002540:	08002f0a 	.word	0x08002f0a
 8002544:	00000000 	.word	0x00000000
 8002548:	080022cb 	.word	0x080022cb
 800254c:	08002f06 	.word	0x08002f06

08002550 <_printf_common>:
 8002550:	e92d 47f0 	stmdb	sp!, {r4, r5, r6, r7, r8, r9, sl, lr}
 8002554:	4616      	mov	r6, r2
 8002556:	4699      	mov	r9, r3
 8002558:	688a      	ldr	r2, [r1, #8]
 800255a:	690b      	ldr	r3, [r1, #16]
 800255c:	f8dd 8020 	ldr.w	r8, [sp, #32]
 8002560:	4293      	cmp	r3, r2
 8002562:	bfb8      	it	lt
 8002564:	4613      	movlt	r3, r2
 8002566:	6033      	str	r3, [r6, #0]
 8002568:	f891 2043 	ldrb.w	r2, [r1, #67]	; 0x43
 800256c:	4607      	mov	r7, r0
 800256e:	460c      	mov	r4, r1
 8002570:	b10a      	cbz	r2, 8002576 <_printf_common+0x26>
 8002572:	3301      	adds	r3, #1
 8002574:	6033      	str	r3, [r6, #0]
 8002576:	6823      	ldr	r3, [r4, #0]
 8002578:	0699      	lsls	r1, r3, #26
 800257a:	bf42      	ittt	mi
 800257c:	6833      	ldrmi	r3, [r6, #0]
 800257e:	3302      	addmi	r3, #2
 8002580:	6033      	strmi	r3, [r6, #0]
 8002582:	6825      	ldr	r5, [r4, #0]
 8002584:	f015 0506 	ands.w	r5, r5, #6
 8002588:	d106      	bne.n	8002598 <_printf_common+0x48>
 800258a:	f104 0a19 	add.w	sl, r4, #25
 800258e:	68e3      	ldr	r3, [r4, #12]
 8002590:	6832      	ldr	r2, [r6, #0]
 8002592:	1a9b      	subs	r3, r3, r2
 8002594:	42ab      	cmp	r3, r5
 8002596:	dc26      	bgt.n	80025e6 <_printf_common+0x96>
 8002598:	f894 2043 	ldrb.w	r2, [r4, #67]	; 0x43
 800259c:	1e13      	subs	r3, r2, #0
 800259e:	6822      	ldr	r2, [r4, #0]
 80025a0:	bf18      	it	ne
 80025a2:	2301      	movne	r3, #1
 80025a4:	0692      	lsls	r2, r2, #26
 80025a6:	d42b      	bmi.n	8002600 <_printf_common+0xb0>
 80025a8:	f104 0243 	add.w	r2, r4, #67	; 0x43
 80025ac:	4649      	mov	r1, r9
 80025ae:	4638      	mov	r0, r7
 80025b0:	47c0      	blx	r8
 80025b2:	3001      	adds	r0, #1
 80025b4:	d01e      	beq.n	80025f4 <_printf_common+0xa4>
 80025b6:	6823      	ldr	r3, [r4, #0]
 80025b8:	68e5      	ldr	r5, [r4, #12]
 80025ba:	6832      	ldr	r2, [r6, #0]
 80025bc:	f003 0306 	and.w	r3, r3, #6
 80025c0:	2b04      	cmp	r3, #4
 80025c2:	bf08      	it	eq
 80025c4:	1aad      	subeq	r5, r5, r2
 80025c6:	68a3      	ldr	r3, [r4, #8]
 80025c8:	6922      	ldr	r2, [r4, #16]
 80025ca:	bf0c      	ite	eq
 80025cc:	ea25 75e5 	biceq.w	r5, r5, r5, asr #31
 80025d0:	2500      	movne	r5, #0
 80025d2:	4293      	cmp	r3, r2
 80025d4:	bfc4      	itt	gt
 80025d6:	1a9b      	subgt	r3, r3, r2
 80025d8:	18ed      	addgt	r5, r5, r3
 80025da:	2600      	movs	r6, #0
 80025dc:	341a      	adds	r4, #26
 80025de:	42b5      	cmp	r5, r6
 80025e0:	d11a      	bne.n	8002618 <_printf_common+0xc8>
 80025e2:	2000      	movs	r0, #0
 80025e4:	e008      	b.n	80025f8 <_printf_common+0xa8>
 80025e6:	2301      	movs	r3, #1
 80025e8:	4652      	mov	r2, sl
 80025ea:	4649      	mov	r1, r9
 80025ec:	4638      	mov	r0, r7
 80025ee:	47c0      	blx	r8
 80025f0:	3001      	adds	r0, #1
 80025f2:	d103      	bne.n	80025fc <_printf_common+0xac>
 80025f4:	f04f 30ff 	mov.w	r0, #4294967295	; 0xffffffff
 80025f8:	e8bd 87f0 	ldmia.w	sp!, {r4, r5, r6, r7, r8, r9, sl, pc}
 80025fc:	3501      	adds	r5, #1
 80025fe:	e7c6      	b.n	800258e <_printf_common+0x3e>
 8002600:	18e1      	adds	r1, r4, r3
 8002602:	1c5a      	adds	r2, r3, #1
 8002604:	2030      	movs	r0, #48	; 0x30
 8002606:	f881 0043 	strb.w	r0, [r1, #67]	; 0x43
 800260a:	4422      	add	r2, r4
 800260c:	f894 1045 	ldrb.w	r1, [r4, #69]	; 0x45
 8002610:	f882 1043 	strb.w	r1, [r2, #67]	; 0x43
 8002614:	3302      	adds	r3, #2
 8002616:	e7c7      	b.n	80025a8 <_printf_common+0x58>
 8002618:	2301      	movs	r3, #1
 800261a:	4622      	mov	r2, r4
 800261c:	4649      	mov	r1, r9
 800261e:	4638      	mov	r0, r7
 8002620:	47c0      	blx	r8
 8002622:	3001      	adds	r0, #1
 8002624:	d0e6      	beq.n	80025f4 <_printf_common+0xa4>
 8002626:	3601      	adds	r6, #1
 8002628:	e7d9      	b.n	80025de <_printf_common+0x8e>
	...

0800262c <_printf_i>:
 800262c:	e92d 47ff 	stmdb	sp!, {r0, r1, r2, r3, r4, r5, r6, r7, r8, r9, sl, lr}
 8002630:	7e0f      	ldrb	r7, [r1, #24]
 8002632:	9d0c      	ldr	r5, [sp, #48]	; 0x30
 8002634:	2f78      	cmp	r7, #120	; 0x78
 8002636:	4691      	mov	r9, r2
 8002638:	4680      	mov	r8, r0
 800263a:	460c      	mov	r4, r1
 800263c:	469a      	mov	sl, r3
 800263e:	f101 0243 	add.w	r2, r1, #67	; 0x43
 8002642:	d807      	bhi.n	8002654 <_printf_i+0x28>
 8002644:	2f62      	cmp	r7, #98	; 0x62
 8002646:	d80a      	bhi.n	800265e <_printf_i+0x32>
 8002648:	2f00      	cmp	r7, #0
 800264a:	f000 80d8 	beq.w	80027fe <_printf_i+0x1d2>
 800264e:	2f58      	cmp	r7, #88	; 0x58
 8002650:	f000 80a3 	beq.w	800279a <_printf_i+0x16e>
 8002654:	f104 0542 	add.w	r5, r4, #66	; 0x42
 8002658:	f884 7042 	strb.w	r7, [r4, #66]	; 0x42
 800265c:	e03a      	b.n	80026d4 <_printf_i+0xa8>
 800265e:	f1a7 0363 	sub.w	r3, r7, #99	; 0x63
 8002662:	2b15      	cmp	r3, #21
 8002664:	d8f6      	bhi.n	8002654 <_printf_i+0x28>
 8002666:	a101      	add	r1, pc, #4	; (adr r1, 800266c <_printf_i+0x40>)
 8002668:	f851 f023 	ldr.w	pc, [r1, r3, lsl #2]
 800266c:	080026c5 	.word	0x080026c5
 8002670:	080026d9 	.word	0x080026d9
 8002674:	08002655 	.word	0x08002655
 8002678:	08002655 	.word	0x08002655
 800267c:	08002655 	.word	0x08002655
 8002680:	08002655 	.word	0x08002655
 8002684:	080026d9 	.word	0x080026d9
 8002688:	08002655 	.word	0x08002655
 800268c:	08002655 	.word	0x08002655
 8002690:	08002655 	.word	0x08002655
 8002694:	08002655 	.word	0x08002655
 8002698:	080027e5 	.word	0x080027e5
 800269c:	08002709 	.word	0x08002709
 80026a0:	080027c7 	.word	0x080027c7
 80026a4:	08002655 	.word	0x08002655
 80026a8:	08002655 	.word	0x08002655
 80026ac:	08002807 	.word	0x08002807
 80026b0:	08002655 	.word	0x08002655
 80026b4:	08002709 	.word	0x08002709
 80026b8:	08002655 	.word	0x08002655
 80026bc:	08002655 	.word	0x08002655
 80026c0:	080027cf 	.word	0x080027cf
 80026c4:	682b      	ldr	r3, [r5, #0]
 80026c6:	1d1a      	adds	r2, r3, #4
 80026c8:	681b      	ldr	r3, [r3, #0]
 80026ca:	602a      	str	r2, [r5, #0]
 80026cc:	f104 0542 	add.w	r5, r4, #66	; 0x42
 80026d0:	f884 3042 	strb.w	r3, [r4, #66]	; 0x42
 80026d4:	2301      	movs	r3, #1
 80026d6:	e0a3      	b.n	8002820 <_printf_i+0x1f4>
 80026d8:	6820      	ldr	r0, [r4, #0]
 80026da:	6829      	ldr	r1, [r5, #0]
 80026dc:	0606      	lsls	r6, r0, #24
 80026de:	f101 0304 	add.w	r3, r1, #4
 80026e2:	d50a      	bpl.n	80026fa <_printf_i+0xce>
 80026e4:	680e      	ldr	r6, [r1, #0]
 80026e6:	602b      	str	r3, [r5, #0]
 80026e8:	2e00      	cmp	r6, #0
 80026ea:	da03      	bge.n	80026f4 <_printf_i+0xc8>
 80026ec:	232d      	movs	r3, #45	; 0x2d
 80026ee:	4276      	negs	r6, r6
 80026f0:	f884 3043 	strb.w	r3, [r4, #67]	; 0x43
 80026f4:	485e      	ldr	r0, [pc, #376]	; (8002870 <_printf_i+0x244>)
 80026f6:	230a      	movs	r3, #10
 80026f8:	e019      	b.n	800272e <_printf_i+0x102>
 80026fa:	680e      	ldr	r6, [r1, #0]
 80026fc:	602b      	str	r3, [r5, #0]
 80026fe:	f010 0f40 	tst.w	r0, #64	; 0x40
 8002702:	bf18      	it	ne
 8002704:	b236      	sxthne	r6, r6
 8002706:	e7ef      	b.n	80026e8 <_printf_i+0xbc>
 8002708:	682b      	ldr	r3, [r5, #0]
 800270a:	6820      	ldr	r0, [r4, #0]
 800270c:	1d19      	adds	r1, r3, #4
 800270e:	6029      	str	r1, [r5, #0]
 8002710:	0601      	lsls	r1, r0, #24
 8002712:	d501      	bpl.n	8002718 <_printf_i+0xec>
 8002714:	681e      	ldr	r6, [r3, #0]
 8002716:	e002      	b.n	800271e <_printf_i+0xf2>
 8002718:	0646      	lsls	r6, r0, #25
 800271a:	d5fb      	bpl.n	8002714 <_printf_i+0xe8>
 800271c:	881e      	ldrh	r6, [r3, #0]
 800271e:	4854      	ldr	r0, [pc, #336]	; (8002870 <_printf_i+0x244>)
 8002720:	2f6f      	cmp	r7, #111	; 0x6f
 8002722:	bf0c      	ite	eq
 8002724:	2308      	moveq	r3, #8
 8002726:	230a      	movne	r3, #10
 8002728:	2100      	movs	r1, #0
 800272a:	f884 1043 	strb.w	r1, [r4, #67]	; 0x43
 800272e:	6865      	ldr	r5, [r4, #4]
 8002730:	60a5      	str	r5, [r4, #8]
 8002732:	2d00      	cmp	r5, #0
 8002734:	bfa2      	ittt	ge
 8002736:	6821      	ldrge	r1, [r4, #0]
 8002738:	f021 0104 	bicge.w	r1, r1, #4
 800273c:	6021      	strge	r1, [r4, #0]
 800273e:	b90e      	cbnz	r6, 8002744 <_printf_i+0x118>
 8002740:	2d00      	cmp	r5, #0
 8002742:	d04d      	beq.n	80027e0 <_printf_i+0x1b4>
 8002744:	4615      	mov	r5, r2
 8002746:	fbb6 f1f3 	udiv	r1, r6, r3
 800274a:	fb03 6711 	mls	r7, r3, r1, r6
 800274e:	5dc7      	ldrb	r7, [r0, r7]
 8002750:	f805 7d01 	strb.w	r7, [r5, #-1]!
 8002754:	4637      	mov	r7, r6
 8002756:	42bb      	cmp	r3, r7
 8002758:	460e      	mov	r6, r1
 800275a:	d9f4      	bls.n	8002746 <_printf_i+0x11a>
 800275c:	2b08      	cmp	r3, #8
 800275e:	d10b      	bne.n	8002778 <_printf_i+0x14c>
 8002760:	6823      	ldr	r3, [r4, #0]
 8002762:	07de      	lsls	r6, r3, #31
 8002764:	d508      	bpl.n	8002778 <_printf_i+0x14c>
 8002766:	6923      	ldr	r3, [r4, #16]
 8002768:	6861      	ldr	r1, [r4, #4]
 800276a:	4299      	cmp	r1, r3
 800276c:	bfde      	ittt	le
 800276e:	2330      	movle	r3, #48	; 0x30
 8002770:	f805 3c01 	strble.w	r3, [r5, #-1]
 8002774:	f105 35ff 	addle.w	r5, r5, #4294967295	; 0xffffffff
 8002778:	1b52      	subs	r2, r2, r5
 800277a:	6122      	str	r2, [r4, #16]
 800277c:	f8cd a000 	str.w	sl, [sp]
 8002780:	464b      	mov	r3, r9
 8002782:	aa03      	add	r2, sp, #12
 8002784:	4621      	mov	r1, r4
 8002786:	4640      	mov	r0, r8
 8002788:	f7ff fee2 	bl	8002550 <_printf_common>
 800278c:	3001      	adds	r0, #1
 800278e:	d14c      	bne.n	800282a <_printf_i+0x1fe>
 8002790:	f04f 30ff 	mov.w	r0, #4294967295	; 0xffffffff
 8002794:	b004      	add	sp, #16
 8002796:	e8bd 87f0 	ldmia.w	sp!, {r4, r5, r6, r7, r8, r9, sl, pc}
 800279a:	4835      	ldr	r0, [pc, #212]	; (8002870 <_printf_i+0x244>)
 800279c:	f881 7045 	strb.w	r7, [r1, #69]	; 0x45
 80027a0:	6829      	ldr	r1, [r5, #0]
 80027a2:	6823      	ldr	r3, [r4, #0]
 80027a4:	f851 6b04 	ldr.w	r6, [r1], #4
 80027a8:	6029      	str	r1, [r5, #0]
 80027aa:	061d      	lsls	r5, r3, #24
 80027ac:	d514      	bpl.n	80027d8 <_printf_i+0x1ac>
 80027ae:	07df      	lsls	r7, r3, #31
 80027b0:	bf44      	itt	mi
 80027b2:	f043 0320 	orrmi.w	r3, r3, #32
 80027b6:	6023      	strmi	r3, [r4, #0]
 80027b8:	b91e      	cbnz	r6, 80027c2 <_printf_i+0x196>
 80027ba:	6823      	ldr	r3, [r4, #0]
 80027bc:	f023 0320 	bic.w	r3, r3, #32
 80027c0:	6023      	str	r3, [r4, #0]
 80027c2:	2310      	movs	r3, #16
 80027c4:	e7b0      	b.n	8002728 <_printf_i+0xfc>
 80027c6:	6823      	ldr	r3, [r4, #0]
 80027c8:	f043 0320 	orr.w	r3, r3, #32
 80027cc:	6023      	str	r3, [r4, #0]
 80027ce:	2378      	movs	r3, #120	; 0x78
 80027d0:	4828      	ldr	r0, [pc, #160]	; (8002874 <_printf_i+0x248>)
 80027d2:	f884 3045 	strb.w	r3, [r4, #69]	; 0x45
 80027d6:	e7e3      	b.n	80027a0 <_printf_i+0x174>
 80027d8:	0659      	lsls	r1, r3, #25
 80027da:	bf48      	it	mi
 80027dc:	b2b6      	uxthmi	r6, r6
 80027de:	e7e6      	b.n	80027ae <_printf_i+0x182>
 80027e0:	4615      	mov	r5, r2
 80027e2:	e7bb      	b.n	800275c <_printf_i+0x130>
 80027e4:	682b      	ldr	r3, [r5, #0]
 80027e6:	6826      	ldr	r6, [r4, #0]
 80027e8:	6961      	ldr	r1, [r4, #20]
 80027ea:	1d18      	adds	r0, r3, #4
 80027ec:	6028      	str	r0, [r5, #0]
 80027ee:	0635      	lsls	r5, r6, #24
 80027f0:	681b      	ldr	r3, [r3, #0]
 80027f2:	d501      	bpl.n	80027f8 <_printf_i+0x1cc>
 80027f4:	6019      	str	r1, [r3, #0]
 80027f6:	e002      	b.n	80027fe <_printf_i+0x1d2>
 80027f8:	0670      	lsls	r0, r6, #25
 80027fa:	d5fb      	bpl.n	80027f4 <_printf_i+0x1c8>
 80027fc:	8019      	strh	r1, [r3, #0]
 80027fe:	2300      	movs	r3, #0
 8002800:	6123      	str	r3, [r4, #16]
 8002802:	4615      	mov	r5, r2
 8002804:	e7ba      	b.n	800277c <_printf_i+0x150>
 8002806:	682b      	ldr	r3, [r5, #0]
 8002808:	1d1a      	adds	r2, r3, #4
 800280a:	602a      	str	r2, [r5, #0]
 800280c:	681d      	ldr	r5, [r3, #0]
 800280e:	6862      	ldr	r2, [r4, #4]
 8002810:	2100      	movs	r1, #0
 8002812:	4628      	mov	r0, r5
 8002814:	f7fd fd04 	bl	8000220 <memchr>
 8002818:	b108      	cbz	r0, 800281e <_printf_i+0x1f2>
 800281a:	1b40      	subs	r0, r0, r5
 800281c:	6060      	str	r0, [r4, #4]
 800281e:	6863      	ldr	r3, [r4, #4]
 8002820:	6123      	str	r3, [r4, #16]
 8002822:	2300      	movs	r3, #0
 8002824:	f884 3043 	strb.w	r3, [r4, #67]	; 0x43
 8002828:	e7a8      	b.n	800277c <_printf_i+0x150>
 800282a:	6923      	ldr	r3, [r4, #16]
 800282c:	462a      	mov	r2, r5
 800282e:	4649      	mov	r1, r9
 8002830:	4640      	mov	r0, r8
 8002832:	47d0      	blx	sl
 8002834:	3001      	adds	r0, #1
 8002836:	d0ab      	beq.n	8002790 <_printf_i+0x164>
 8002838:	6823      	ldr	r3, [r4, #0]
 800283a:	079b      	lsls	r3, r3, #30
 800283c:	d413      	bmi.n	8002866 <_printf_i+0x23a>
 800283e:	68e0      	ldr	r0, [r4, #12]
 8002840:	9b03      	ldr	r3, [sp, #12]
 8002842:	4298      	cmp	r0, r3
 8002844:	bfb8      	it	lt
 8002846:	4618      	movlt	r0, r3
 8002848:	e7a4      	b.n	8002794 <_printf_i+0x168>
 800284a:	2301      	movs	r3, #1
 800284c:	4632      	mov	r2, r6
 800284e:	4649      	mov	r1, r9
 8002850:	4640      	mov	r0, r8
 8002852:	47d0      	blx	sl
 8002854:	3001      	adds	r0, #1
 8002856:	d09b      	beq.n	8002790 <_printf_i+0x164>
 8002858:	3501      	adds	r5, #1
 800285a:	68e3      	ldr	r3, [r4, #12]
 800285c:	9903      	ldr	r1, [sp, #12]
 800285e:	1a5b      	subs	r3, r3, r1
 8002860:	42ab      	cmp	r3, r5
 8002862:	dcf2      	bgt.n	800284a <_printf_i+0x21e>
 8002864:	e7eb      	b.n	800283e <_printf_i+0x212>
 8002866:	2500      	movs	r5, #0
 8002868:	f104 0619 	add.w	r6, r4, #25
 800286c:	e7f5      	b.n	800285a <_printf_i+0x22e>
 800286e:	bf00      	nop
 8002870:	08002f11 	.word	0x08002f11
 8002874:	08002f22 	.word	0x08002f22

08002878 <_sbrk_r>:
 8002878:	b538      	push	{r3, r4, r5, lr}
 800287a:	4d06      	ldr	r5, [pc, #24]	; (8002894 <_sbrk_r+0x1c>)
 800287c:	2300      	movs	r3, #0
 800287e:	4604      	mov	r4, r0
 8002880:	4608      	mov	r0, r1
 8002882:	602b      	str	r3, [r5, #0]
 8002884:	f7fd ff1e 	bl	80006c4 <_sbrk>
 8002888:	1c43      	adds	r3, r0, #1
 800288a:	d102      	bne.n	8002892 <_sbrk_r+0x1a>
 800288c:	682b      	ldr	r3, [r5, #0]
 800288e:	b103      	cbz	r3, 8002892 <_sbrk_r+0x1a>
 8002890:	6023      	str	r3, [r4, #0]
 8002892:	bd38      	pop	{r3, r4, r5, pc}
 8002894:	20000444 	.word	0x20000444

08002898 <__sread>:
 8002898:	b510      	push	{r4, lr}
 800289a:	460c      	mov	r4, r1
 800289c:	f9b1 100e 	ldrsh.w	r1, [r1, #14]
 80028a0:	f000 fab2 	bl	8002e08 <_read_r>
 80028a4:	2800      	cmp	r0, #0
 80028a6:	bfab      	itete	ge
 80028a8:	6d63      	ldrge	r3, [r4, #84]	; 0x54
 80028aa:	89a3      	ldrhlt	r3, [r4, #12]
 80028ac:	181b      	addge	r3, r3, r0
 80028ae:	f423 5380 	biclt.w	r3, r3, #4096	; 0x1000
 80028b2:	bfac      	ite	ge
 80028b4:	6563      	strge	r3, [r4, #84]	; 0x54
 80028b6:	81a3      	strhlt	r3, [r4, #12]
 80028b8:	bd10      	pop	{r4, pc}

080028ba <__swrite>:
 80028ba:	e92d 41f0 	stmdb	sp!, {r4, r5, r6, r7, r8, lr}
 80028be:	461f      	mov	r7, r3
 80028c0:	898b      	ldrh	r3, [r1, #12]
 80028c2:	05db      	lsls	r3, r3, #23
 80028c4:	4605      	mov	r5, r0
 80028c6:	460c      	mov	r4, r1
 80028c8:	4616      	mov	r6, r2
 80028ca:	d505      	bpl.n	80028d8 <__swrite+0x1e>
 80028cc:	f9b1 100e 	ldrsh.w	r1, [r1, #14]
 80028d0:	2302      	movs	r3, #2
 80028d2:	2200      	movs	r2, #0
 80028d4:	f000 f9c8 	bl	8002c68 <_lseek_r>
 80028d8:	89a3      	ldrh	r3, [r4, #12]
 80028da:	f9b4 100e 	ldrsh.w	r1, [r4, #14]
 80028de:	f423 5380 	bic.w	r3, r3, #4096	; 0x1000
 80028e2:	81a3      	strh	r3, [r4, #12]
 80028e4:	4632      	mov	r2, r6
 80028e6:	463b      	mov	r3, r7
 80028e8:	4628      	mov	r0, r5
 80028ea:	e8bd 41f0 	ldmia.w	sp!, {r4, r5, r6, r7, r8, lr}
 80028ee:	f000 b869 	b.w	80029c4 <_write_r>

080028f2 <__sseek>:
 80028f2:	b510      	push	{r4, lr}
 80028f4:	460c      	mov	r4, r1
 80028f6:	f9b1 100e 	ldrsh.w	r1, [r1, #14]
 80028fa:	f000 f9b5 	bl	8002c68 <_lseek_r>
 80028fe:	1c43      	adds	r3, r0, #1
 8002900:	89a3      	ldrh	r3, [r4, #12]
 8002902:	bf15      	itete	ne
 8002904:	6560      	strne	r0, [r4, #84]	; 0x54
 8002906:	f423 5380 	biceq.w	r3, r3, #4096	; 0x1000
 800290a:	f443 5380 	orrne.w	r3, r3, #4096	; 0x1000
 800290e:	81a3      	strheq	r3, [r4, #12]
 8002910:	bf18      	it	ne
 8002912:	81a3      	strhne	r3, [r4, #12]
 8002914:	bd10      	pop	{r4, pc}

08002916 <__sclose>:
 8002916:	f9b1 100e 	ldrsh.w	r1, [r1, #14]
 800291a:	f000 b8d3 	b.w	8002ac4 <_close_r>
	...

08002920 <__swbuf_r>:
 8002920:	b5f8      	push	{r3, r4, r5, r6, r7, lr}
 8002922:	460e      	mov	r6, r1
 8002924:	4614      	mov	r4, r2
 8002926:	4605      	mov	r5, r0
 8002928:	b118      	cbz	r0, 8002932 <__swbuf_r+0x12>
 800292a:	6983      	ldr	r3, [r0, #24]
 800292c:	b90b      	cbnz	r3, 8002932 <__swbuf_r+0x12>
 800292e:	f7ff fb81 	bl	8002034 <__sinit>
 8002932:	4b21      	ldr	r3, [pc, #132]	; (80029b8 <__swbuf_r+0x98>)
 8002934:	429c      	cmp	r4, r3
 8002936:	d12b      	bne.n	8002990 <__swbuf_r+0x70>
 8002938:	686c      	ldr	r4, [r5, #4]
 800293a:	69a3      	ldr	r3, [r4, #24]
 800293c:	60a3      	str	r3, [r4, #8]
 800293e:	89a3      	ldrh	r3, [r4, #12]
 8002940:	071a      	lsls	r2, r3, #28
 8002942:	d52f      	bpl.n	80029a4 <__swbuf_r+0x84>
 8002944:	6923      	ldr	r3, [r4, #16]
 8002946:	b36b      	cbz	r3, 80029a4 <__swbuf_r+0x84>
 8002948:	6923      	ldr	r3, [r4, #16]
 800294a:	6820      	ldr	r0, [r4, #0]
 800294c:	1ac0      	subs	r0, r0, r3
 800294e:	6963      	ldr	r3, [r4, #20]
 8002950:	b2f6      	uxtb	r6, r6
 8002952:	4283      	cmp	r3, r0
 8002954:	4637      	mov	r7, r6
 8002956:	dc04      	bgt.n	8002962 <__swbuf_r+0x42>
 8002958:	4621      	mov	r1, r4
 800295a:	4628      	mov	r0, r5
 800295c:	f000 f948 	bl	8002bf0 <_fflush_r>
 8002960:	bb30      	cbnz	r0, 80029b0 <__swbuf_r+0x90>
 8002962:	68a3      	ldr	r3, [r4, #8]
 8002964:	3b01      	subs	r3, #1
 8002966:	60a3      	str	r3, [r4, #8]
 8002968:	6823      	ldr	r3, [r4, #0]
 800296a:	1c5a      	adds	r2, r3, #1
 800296c:	6022      	str	r2, [r4, #0]
 800296e:	701e      	strb	r6, [r3, #0]
 8002970:	6963      	ldr	r3, [r4, #20]
 8002972:	3001      	adds	r0, #1
 8002974:	4283      	cmp	r3, r0
 8002976:	d004      	beq.n	8002982 <__swbuf_r+0x62>
 8002978:	89a3      	ldrh	r3, [r4, #12]
 800297a:	07db      	lsls	r3, r3, #31
 800297c:	d506      	bpl.n	800298c <__swbuf_r+0x6c>
 800297e:	2e0a      	cmp	r6, #10
 8002980:	d104      	bne.n	800298c <__swbuf_r+0x6c>
 8002982:	4621      	mov	r1, r4
 8002984:	4628      	mov	r0, r5
 8002986:	f000 f933 	bl	8002bf0 <_fflush_r>
 800298a:	b988      	cbnz	r0, 80029b0 <__swbuf_r+0x90>
 800298c:	4638      	mov	r0, r7
 800298e:	bdf8      	pop	{r3, r4, r5, r6, r7, pc}
 8002990:	4b0a      	ldr	r3, [pc, #40]	; (80029bc <__swbuf_r+0x9c>)
 8002992:	429c      	cmp	r4, r3
 8002994:	d101      	bne.n	800299a <__swbuf_r+0x7a>
 8002996:	68ac      	ldr	r4, [r5, #8]
 8002998:	e7cf      	b.n	800293a <__swbuf_r+0x1a>
 800299a:	4b09      	ldr	r3, [pc, #36]	; (80029c0 <__swbuf_r+0xa0>)
 800299c:	429c      	cmp	r4, r3
 800299e:	bf08      	it	eq
 80029a0:	68ec      	ldreq	r4, [r5, #12]
 80029a2:	e7ca      	b.n	800293a <__swbuf_r+0x1a>
 80029a4:	4621      	mov	r1, r4
 80029a6:	4628      	mov	r0, r5
 80029a8:	f000 f81e 	bl	80029e8 <__swsetup_r>
 80029ac:	2800      	cmp	r0, #0
 80029ae:	d0cb      	beq.n	8002948 <__swbuf_r+0x28>
 80029b0:	f04f 37ff 	mov.w	r7, #4294967295	; 0xffffffff
 80029b4:	e7ea      	b.n	800298c <__swbuf_r+0x6c>
 80029b6:	bf00      	nop
 80029b8:	08002ec0 	.word	0x08002ec0
 80029bc:	08002ee0 	.word	0x08002ee0
 80029c0:	08002ea0 	.word	0x08002ea0

080029c4 <_write_r>:
 80029c4:	b538      	push	{r3, r4, r5, lr}
 80029c6:	4d07      	ldr	r5, [pc, #28]	; (80029e4 <_write_r+0x20>)
 80029c8:	4604      	mov	r4, r0
 80029ca:	4608      	mov	r0, r1
 80029cc:	4611      	mov	r1, r2
 80029ce:	2200      	movs	r2, #0
 80029d0:	602a      	str	r2, [r5, #0]
 80029d2:	461a      	mov	r2, r3
 80029d4:	f7fd fd8e 	bl	80004f4 <_write>
 80029d8:	1c43      	adds	r3, r0, #1
 80029da:	d102      	bne.n	80029e2 <_write_r+0x1e>
 80029dc:	682b      	ldr	r3, [r5, #0]
 80029de:	b103      	cbz	r3, 80029e2 <_write_r+0x1e>
 80029e0:	6023      	str	r3, [r4, #0]
 80029e2:	bd38      	pop	{r3, r4, r5, pc}
 80029e4:	20000444 	.word	0x20000444

080029e8 <__swsetup_r>:
 80029e8:	4b32      	ldr	r3, [pc, #200]	; (8002ab4 <__swsetup_r+0xcc>)
 80029ea:	b570      	push	{r4, r5, r6, lr}
 80029ec:	681d      	ldr	r5, [r3, #0]
 80029ee:	4606      	mov	r6, r0
 80029f0:	460c      	mov	r4, r1
 80029f2:	b125      	cbz	r5, 80029fe <__swsetup_r+0x16>
 80029f4:	69ab      	ldr	r3, [r5, #24]
 80029f6:	b913      	cbnz	r3, 80029fe <__swsetup_r+0x16>
 80029f8:	4628      	mov	r0, r5
 80029fa:	f7ff fb1b 	bl	8002034 <__sinit>
 80029fe:	4b2e      	ldr	r3, [pc, #184]	; (8002ab8 <__swsetup_r+0xd0>)
 8002a00:	429c      	cmp	r4, r3
 8002a02:	d10f      	bne.n	8002a24 <__swsetup_r+0x3c>
 8002a04:	686c      	ldr	r4, [r5, #4]
 8002a06:	89a3      	ldrh	r3, [r4, #12]
 8002a08:	f9b4 200c 	ldrsh.w	r2, [r4, #12]
 8002a0c:	0719      	lsls	r1, r3, #28
 8002a0e:	d42c      	bmi.n	8002a6a <__swsetup_r+0x82>
 8002a10:	06dd      	lsls	r5, r3, #27
 8002a12:	d411      	bmi.n	8002a38 <__swsetup_r+0x50>
 8002a14:	2309      	movs	r3, #9
 8002a16:	6033      	str	r3, [r6, #0]
 8002a18:	f042 0340 	orr.w	r3, r2, #64	; 0x40
 8002a1c:	81a3      	strh	r3, [r4, #12]
 8002a1e:	f04f 30ff 	mov.w	r0, #4294967295	; 0xffffffff
 8002a22:	e03e      	b.n	8002aa2 <__swsetup_r+0xba>
 8002a24:	4b25      	ldr	r3, [pc, #148]	; (8002abc <__swsetup_r+0xd4>)
 8002a26:	429c      	cmp	r4, r3
 8002a28:	d101      	bne.n	8002a2e <__swsetup_r+0x46>
 8002a2a:	68ac      	ldr	r4, [r5, #8]
 8002a2c:	e7eb      	b.n	8002a06 <__swsetup_r+0x1e>
 8002a2e:	4b24      	ldr	r3, [pc, #144]	; (8002ac0 <__swsetup_r+0xd8>)
 8002a30:	429c      	cmp	r4, r3
 8002a32:	bf08      	it	eq
 8002a34:	68ec      	ldreq	r4, [r5, #12]
 8002a36:	e7e6      	b.n	8002a06 <__swsetup_r+0x1e>
 8002a38:	0758      	lsls	r0, r3, #29
 8002a3a:	d512      	bpl.n	8002a62 <__swsetup_r+0x7a>
 8002a3c:	6b61      	ldr	r1, [r4, #52]	; 0x34
 8002a3e:	b141      	cbz	r1, 8002a52 <__swsetup_r+0x6a>
 8002a40:	f104 0344 	add.w	r3, r4, #68	; 0x44
 8002a44:	4299      	cmp	r1, r3
 8002a46:	d002      	beq.n	8002a4e <__swsetup_r+0x66>
 8002a48:	4630      	mov	r0, r6
 8002a4a:	f000 f991 	bl	8002d70 <_free_r>
 8002a4e:	2300      	movs	r3, #0
 8002a50:	6363      	str	r3, [r4, #52]	; 0x34
 8002a52:	89a3      	ldrh	r3, [r4, #12]
 8002a54:	f023 0324 	bic.w	r3, r3, #36	; 0x24
 8002a58:	81a3      	strh	r3, [r4, #12]
 8002a5a:	2300      	movs	r3, #0
 8002a5c:	6063      	str	r3, [r4, #4]
 8002a5e:	6923      	ldr	r3, [r4, #16]
 8002a60:	6023      	str	r3, [r4, #0]
 8002a62:	89a3      	ldrh	r3, [r4, #12]
 8002a64:	f043 0308 	orr.w	r3, r3, #8
 8002a68:	81a3      	strh	r3, [r4, #12]
 8002a6a:	6923      	ldr	r3, [r4, #16]
 8002a6c:	b94b      	cbnz	r3, 8002a82 <__swsetup_r+0x9a>
 8002a6e:	89a3      	ldrh	r3, [r4, #12]
 8002a70:	f403 7320 	and.w	r3, r3, #640	; 0x280
 8002a74:	f5b3 7f00 	cmp.w	r3, #512	; 0x200
 8002a78:	d003      	beq.n	8002a82 <__swsetup_r+0x9a>
 8002a7a:	4621      	mov	r1, r4
 8002a7c:	4630      	mov	r0, r6
 8002a7e:	f000 f92b 	bl	8002cd8 <__smakebuf_r>
 8002a82:	89a0      	ldrh	r0, [r4, #12]
 8002a84:	f9b4 200c 	ldrsh.w	r2, [r4, #12]
 8002a88:	f010 0301 	ands.w	r3, r0, #1
 8002a8c:	d00a      	beq.n	8002aa4 <__swsetup_r+0xbc>
 8002a8e:	2300      	movs	r3, #0
 8002a90:	60a3      	str	r3, [r4, #8]
 8002a92:	6963      	ldr	r3, [r4, #20]
 8002a94:	425b      	negs	r3, r3
 8002a96:	61a3      	str	r3, [r4, #24]
 8002a98:	6923      	ldr	r3, [r4, #16]
 8002a9a:	b943      	cbnz	r3, 8002aae <__swsetup_r+0xc6>
 8002a9c:	f010 0080 	ands.w	r0, r0, #128	; 0x80
 8002aa0:	d1ba      	bne.n	8002a18 <__swsetup_r+0x30>
 8002aa2:	bd70      	pop	{r4, r5, r6, pc}
 8002aa4:	0781      	lsls	r1, r0, #30
 8002aa6:	bf58      	it	pl
 8002aa8:	6963      	ldrpl	r3, [r4, #20]
 8002aaa:	60a3      	str	r3, [r4, #8]
 8002aac:	e7f4      	b.n	8002a98 <__swsetup_r+0xb0>
 8002aae:	2000      	movs	r0, #0
 8002ab0:	e7f7      	b.n	8002aa2 <__swsetup_r+0xba>
 8002ab2:	bf00      	nop
 8002ab4:	2000000c 	.word	0x2000000c
 8002ab8:	08002ec0 	.word	0x08002ec0
 8002abc:	08002ee0 	.word	0x08002ee0
 8002ac0:	08002ea0 	.word	0x08002ea0

08002ac4 <_close_r>:
 8002ac4:	b538      	push	{r3, r4, r5, lr}
 8002ac6:	4d06      	ldr	r5, [pc, #24]	; (8002ae0 <_close_r+0x1c>)
 8002ac8:	2300      	movs	r3, #0
 8002aca:	4604      	mov	r4, r0
 8002acc:	4608      	mov	r0, r1
 8002ace:	602b      	str	r3, [r5, #0]
 8002ad0:	f7fd fdec 	bl	80006ac <_close>
 8002ad4:	1c43      	adds	r3, r0, #1
 8002ad6:	d102      	bne.n	8002ade <_close_r+0x1a>
 8002ad8:	682b      	ldr	r3, [r5, #0]
 8002ada:	b103      	cbz	r3, 8002ade <_close_r+0x1a>
 8002adc:	6023      	str	r3, [r4, #0]
 8002ade:	bd38      	pop	{r3, r4, r5, pc}
 8002ae0:	20000444 	.word	0x20000444

08002ae4 <__sflush_r>:
 8002ae4:	898a      	ldrh	r2, [r1, #12]
 8002ae6:	e92d 41f0 	stmdb	sp!, {r4, r5, r6, r7, r8, lr}
 8002aea:	4605      	mov	r5, r0
 8002aec:	0710      	lsls	r0, r2, #28
 8002aee:	460c      	mov	r4, r1
 8002af0:	d458      	bmi.n	8002ba4 <__sflush_r+0xc0>
 8002af2:	684b      	ldr	r3, [r1, #4]
 8002af4:	2b00      	cmp	r3, #0
 8002af6:	dc05      	bgt.n	8002b04 <__sflush_r+0x20>
 8002af8:	6c0b      	ldr	r3, [r1, #64]	; 0x40
 8002afa:	2b00      	cmp	r3, #0
 8002afc:	dc02      	bgt.n	8002b04 <__sflush_r+0x20>
 8002afe:	2000      	movs	r0, #0
 8002b00:	e8bd 81f0 	ldmia.w	sp!, {r4, r5, r6, r7, r8, pc}
 8002b04:	6ae6      	ldr	r6, [r4, #44]	; 0x2c
 8002b06:	2e00      	cmp	r6, #0
 8002b08:	d0f9      	beq.n	8002afe <__sflush_r+0x1a>
 8002b0a:	2300      	movs	r3, #0
 8002b0c:	f412 5280 	ands.w	r2, r2, #4096	; 0x1000
 8002b10:	682f      	ldr	r7, [r5, #0]
 8002b12:	602b      	str	r3, [r5, #0]
 8002b14:	d032      	beq.n	8002b7c <__sflush_r+0x98>
 8002b16:	6d60      	ldr	r0, [r4, #84]	; 0x54
 8002b18:	89a3      	ldrh	r3, [r4, #12]
 8002b1a:	075a      	lsls	r2, r3, #29
 8002b1c:	d505      	bpl.n	8002b2a <__sflush_r+0x46>
 8002b1e:	6863      	ldr	r3, [r4, #4]
 8002b20:	1ac0      	subs	r0, r0, r3
 8002b22:	6b63      	ldr	r3, [r4, #52]	; 0x34
 8002b24:	b10b      	cbz	r3, 8002b2a <__sflush_r+0x46>
 8002b26:	6c23      	ldr	r3, [r4, #64]	; 0x40
 8002b28:	1ac0      	subs	r0, r0, r3
 8002b2a:	2300      	movs	r3, #0
 8002b2c:	4602      	mov	r2, r0
 8002b2e:	6ae6      	ldr	r6, [r4, #44]	; 0x2c
 8002b30:	6a21      	ldr	r1, [r4, #32]
 8002b32:	4628      	mov	r0, r5
 8002b34:	47b0      	blx	r6
 8002b36:	1c43      	adds	r3, r0, #1
 8002b38:	89a3      	ldrh	r3, [r4, #12]
 8002b3a:	d106      	bne.n	8002b4a <__sflush_r+0x66>
 8002b3c:	6829      	ldr	r1, [r5, #0]
 8002b3e:	291d      	cmp	r1, #29
 8002b40:	d82c      	bhi.n	8002b9c <__sflush_r+0xb8>
 8002b42:	4a2a      	ldr	r2, [pc, #168]	; (8002bec <__sflush_r+0x108>)
 8002b44:	40ca      	lsrs	r2, r1
 8002b46:	07d6      	lsls	r6, r2, #31
 8002b48:	d528      	bpl.n	8002b9c <__sflush_r+0xb8>
 8002b4a:	2200      	movs	r2, #0
 8002b4c:	6062      	str	r2, [r4, #4]
 8002b4e:	04d9      	lsls	r1, r3, #19
 8002b50:	6922      	ldr	r2, [r4, #16]
 8002b52:	6022      	str	r2, [r4, #0]
 8002b54:	d504      	bpl.n	8002b60 <__sflush_r+0x7c>
 8002b56:	1c42      	adds	r2, r0, #1
 8002b58:	d101      	bne.n	8002b5e <__sflush_r+0x7a>
 8002b5a:	682b      	ldr	r3, [r5, #0]
 8002b5c:	b903      	cbnz	r3, 8002b60 <__sflush_r+0x7c>
 8002b5e:	6560      	str	r0, [r4, #84]	; 0x54
 8002b60:	6b61      	ldr	r1, [r4, #52]	; 0x34
 8002b62:	602f      	str	r7, [r5, #0]
 8002b64:	2900      	cmp	r1, #0
 8002b66:	d0ca      	beq.n	8002afe <__sflush_r+0x1a>
 8002b68:	f104 0344 	add.w	r3, r4, #68	; 0x44
 8002b6c:	4299      	cmp	r1, r3
 8002b6e:	d002      	beq.n	8002b76 <__sflush_r+0x92>
 8002b70:	4628      	mov	r0, r5
 8002b72:	f000 f8fd 	bl	8002d70 <_free_r>
 8002b76:	2000      	movs	r0, #0
 8002b78:	6360      	str	r0, [r4, #52]	; 0x34
 8002b7a:	e7c1      	b.n	8002b00 <__sflush_r+0x1c>
 8002b7c:	6a21      	ldr	r1, [r4, #32]
 8002b7e:	2301      	movs	r3, #1
 8002b80:	4628      	mov	r0, r5
 8002b82:	47b0      	blx	r6
 8002b84:	1c41      	adds	r1, r0, #1
 8002b86:	d1c7      	bne.n	8002b18 <__sflush_r+0x34>
 8002b88:	682b      	ldr	r3, [r5, #0]
 8002b8a:	2b00      	cmp	r3, #0
 8002b8c:	d0c4      	beq.n	8002b18 <__sflush_r+0x34>
 8002b8e:	2b1d      	cmp	r3, #29
 8002b90:	d001      	beq.n	8002b96 <__sflush_r+0xb2>
 8002b92:	2b16      	cmp	r3, #22
 8002b94:	d101      	bne.n	8002b9a <__sflush_r+0xb6>
 8002b96:	602f      	str	r7, [r5, #0]
 8002b98:	e7b1      	b.n	8002afe <__sflush_r+0x1a>
 8002b9a:	89a3      	ldrh	r3, [r4, #12]
 8002b9c:	f043 0340 	orr.w	r3, r3, #64	; 0x40
 8002ba0:	81a3      	strh	r3, [r4, #12]
 8002ba2:	e7ad      	b.n	8002b00 <__sflush_r+0x1c>
 8002ba4:	690f      	ldr	r7, [r1, #16]
 8002ba6:	2f00      	cmp	r7, #0
 8002ba8:	d0a9      	beq.n	8002afe <__sflush_r+0x1a>
 8002baa:	0793      	lsls	r3, r2, #30
 8002bac:	680e      	ldr	r6, [r1, #0]
 8002bae:	bf08      	it	eq
 8002bb0:	694b      	ldreq	r3, [r1, #20]
 8002bb2:	600f      	str	r7, [r1, #0]
 8002bb4:	bf18      	it	ne
 8002bb6:	2300      	movne	r3, #0
 8002bb8:	eba6 0807 	sub.w	r8, r6, r7
 8002bbc:	608b      	str	r3, [r1, #8]
 8002bbe:	f1b8 0f00 	cmp.w	r8, #0
 8002bc2:	dd9c      	ble.n	8002afe <__sflush_r+0x1a>
 8002bc4:	6a21      	ldr	r1, [r4, #32]
 8002bc6:	6aa6      	ldr	r6, [r4, #40]	; 0x28
 8002bc8:	4643      	mov	r3, r8
 8002bca:	463a      	mov	r2, r7
 8002bcc:	4628      	mov	r0, r5
 8002bce:	47b0      	blx	r6
 8002bd0:	2800      	cmp	r0, #0
 8002bd2:	dc06      	bgt.n	8002be2 <__sflush_r+0xfe>
 8002bd4:	89a3      	ldrh	r3, [r4, #12]
 8002bd6:	f043 0340 	orr.w	r3, r3, #64	; 0x40
 8002bda:	81a3      	strh	r3, [r4, #12]
 8002bdc:	f04f 30ff 	mov.w	r0, #4294967295	; 0xffffffff
 8002be0:	e78e      	b.n	8002b00 <__sflush_r+0x1c>
 8002be2:	4407      	add	r7, r0
 8002be4:	eba8 0800 	sub.w	r8, r8, r0
 8002be8:	e7e9      	b.n	8002bbe <__sflush_r+0xda>
 8002bea:	bf00      	nop
 8002bec:	20400001 	.word	0x20400001

08002bf0 <_fflush_r>:
 8002bf0:	b538      	push	{r3, r4, r5, lr}
 8002bf2:	690b      	ldr	r3, [r1, #16]
 8002bf4:	4605      	mov	r5, r0
 8002bf6:	460c      	mov	r4, r1
 8002bf8:	b913      	cbnz	r3, 8002c00 <_fflush_r+0x10>
 8002bfa:	2500      	movs	r5, #0
 8002bfc:	4628      	mov	r0, r5
 8002bfe:	bd38      	pop	{r3, r4, r5, pc}
 8002c00:	b118      	cbz	r0, 8002c0a <_fflush_r+0x1a>
 8002c02:	6983      	ldr	r3, [r0, #24]
 8002c04:	b90b      	cbnz	r3, 8002c0a <_fflush_r+0x1a>
 8002c06:	f7ff fa15 	bl	8002034 <__sinit>
 8002c0a:	4b14      	ldr	r3, [pc, #80]	; (8002c5c <_fflush_r+0x6c>)
 8002c0c:	429c      	cmp	r4, r3
 8002c0e:	d11b      	bne.n	8002c48 <_fflush_r+0x58>
 8002c10:	686c      	ldr	r4, [r5, #4]
 8002c12:	f9b4 300c 	ldrsh.w	r3, [r4, #12]
 8002c16:	2b00      	cmp	r3, #0
 8002c18:	d0ef      	beq.n	8002bfa <_fflush_r+0xa>
 8002c1a:	6e62      	ldr	r2, [r4, #100]	; 0x64
 8002c1c:	07d0      	lsls	r0, r2, #31
 8002c1e:	d404      	bmi.n	8002c2a <_fflush_r+0x3a>
 8002c20:	0599      	lsls	r1, r3, #22
 8002c22:	d402      	bmi.n	8002c2a <_fflush_r+0x3a>
 8002c24:	6da0      	ldr	r0, [r4, #88]	; 0x58
 8002c26:	f7ff faa3 	bl	8002170 <__retarget_lock_acquire_recursive>
 8002c2a:	4628      	mov	r0, r5
 8002c2c:	4621      	mov	r1, r4
 8002c2e:	f7ff ff59 	bl	8002ae4 <__sflush_r>
 8002c32:	6e63      	ldr	r3, [r4, #100]	; 0x64
 8002c34:	07da      	lsls	r2, r3, #31
 8002c36:	4605      	mov	r5, r0
 8002c38:	d4e0      	bmi.n	8002bfc <_fflush_r+0xc>
 8002c3a:	89a3      	ldrh	r3, [r4, #12]
 8002c3c:	059b      	lsls	r3, r3, #22
 8002c3e:	d4dd      	bmi.n	8002bfc <_fflush_r+0xc>
 8002c40:	6da0      	ldr	r0, [r4, #88]	; 0x58
 8002c42:	f7ff fa96 	bl	8002172 <__retarget_lock_release_recursive>
 8002c46:	e7d9      	b.n	8002bfc <_fflush_r+0xc>
 8002c48:	4b05      	ldr	r3, [pc, #20]	; (8002c60 <_fflush_r+0x70>)
 8002c4a:	429c      	cmp	r4, r3
 8002c4c:	d101      	bne.n	8002c52 <_fflush_r+0x62>
 8002c4e:	68ac      	ldr	r4, [r5, #8]
 8002c50:	e7df      	b.n	8002c12 <_fflush_r+0x22>
 8002c52:	4b04      	ldr	r3, [pc, #16]	; (8002c64 <_fflush_r+0x74>)
 8002c54:	429c      	cmp	r4, r3
 8002c56:	bf08      	it	eq
 8002c58:	68ec      	ldreq	r4, [r5, #12]
 8002c5a:	e7da      	b.n	8002c12 <_fflush_r+0x22>
 8002c5c:	08002ec0 	.word	0x08002ec0
 8002c60:	08002ee0 	.word	0x08002ee0
 8002c64:	08002ea0 	.word	0x08002ea0

08002c68 <_lseek_r>:
 8002c68:	b538      	push	{r3, r4, r5, lr}
 8002c6a:	4d07      	ldr	r5, [pc, #28]	; (8002c88 <_lseek_r+0x20>)
 8002c6c:	4604      	mov	r4, r0
 8002c6e:	4608      	mov	r0, r1
 8002c70:	4611      	mov	r1, r2
 8002c72:	2200      	movs	r2, #0
 8002c74:	602a      	str	r2, [r5, #0]
 8002c76:	461a      	mov	r2, r3
 8002c78:	f7fd fd22 	bl	80006c0 <_lseek>
 8002c7c:	1c43      	adds	r3, r0, #1
 8002c7e:	d102      	bne.n	8002c86 <_lseek_r+0x1e>
 8002c80:	682b      	ldr	r3, [r5, #0]
 8002c82:	b103      	cbz	r3, 8002c86 <_lseek_r+0x1e>
 8002c84:	6023      	str	r3, [r4, #0]
 8002c86:	bd38      	pop	{r3, r4, r5, pc}
 8002c88:	20000444 	.word	0x20000444

08002c8c <__swhatbuf_r>:
 8002c8c:	b570      	push	{r4, r5, r6, lr}
 8002c8e:	460e      	mov	r6, r1
 8002c90:	f9b1 100e 	ldrsh.w	r1, [r1, #14]
 8002c94:	2900      	cmp	r1, #0
 8002c96:	b096      	sub	sp, #88	; 0x58
 8002c98:	4614      	mov	r4, r2
 8002c9a:	461d      	mov	r5, r3
 8002c9c:	da08      	bge.n	8002cb0 <__swhatbuf_r+0x24>
 8002c9e:	f9b6 300c 	ldrsh.w	r3, [r6, #12]
 8002ca2:	2200      	movs	r2, #0
 8002ca4:	602a      	str	r2, [r5, #0]
 8002ca6:	061a      	lsls	r2, r3, #24
 8002ca8:	d410      	bmi.n	8002ccc <__swhatbuf_r+0x40>
 8002caa:	f44f 6380 	mov.w	r3, #1024	; 0x400
 8002cae:	e00e      	b.n	8002cce <__swhatbuf_r+0x42>
 8002cb0:	466a      	mov	r2, sp
 8002cb2:	f000 f8bb 	bl	8002e2c <_fstat_r>
 8002cb6:	2800      	cmp	r0, #0
 8002cb8:	dbf1      	blt.n	8002c9e <__swhatbuf_r+0x12>
 8002cba:	9a01      	ldr	r2, [sp, #4]
 8002cbc:	f402 4270 	and.w	r2, r2, #61440	; 0xf000
 8002cc0:	f5a2 5300 	sub.w	r3, r2, #8192	; 0x2000
 8002cc4:	425a      	negs	r2, r3
 8002cc6:	415a      	adcs	r2, r3
 8002cc8:	602a      	str	r2, [r5, #0]
 8002cca:	e7ee      	b.n	8002caa <__swhatbuf_r+0x1e>
 8002ccc:	2340      	movs	r3, #64	; 0x40
 8002cce:	2000      	movs	r0, #0
 8002cd0:	6023      	str	r3, [r4, #0]
 8002cd2:	b016      	add	sp, #88	; 0x58
 8002cd4:	bd70      	pop	{r4, r5, r6, pc}
	...

08002cd8 <__smakebuf_r>:
 8002cd8:	898b      	ldrh	r3, [r1, #12]
 8002cda:	b573      	push	{r0, r1, r4, r5, r6, lr}
 8002cdc:	079d      	lsls	r5, r3, #30
 8002cde:	4606      	mov	r6, r0
 8002ce0:	460c      	mov	r4, r1
 8002ce2:	d507      	bpl.n	8002cf4 <__smakebuf_r+0x1c>
 8002ce4:	f104 0347 	add.w	r3, r4, #71	; 0x47
 8002ce8:	6023      	str	r3, [r4, #0]
 8002cea:	6123      	str	r3, [r4, #16]
 8002cec:	2301      	movs	r3, #1
 8002cee:	6163      	str	r3, [r4, #20]
 8002cf0:	b002      	add	sp, #8
 8002cf2:	bd70      	pop	{r4, r5, r6, pc}
 8002cf4:	ab01      	add	r3, sp, #4
 8002cf6:	466a      	mov	r2, sp
 8002cf8:	f7ff ffc8 	bl	8002c8c <__swhatbuf_r>
 8002cfc:	9900      	ldr	r1, [sp, #0]
 8002cfe:	4605      	mov	r5, r0
 8002d00:	4630      	mov	r0, r6
 8002d02:	f7ff fa57 	bl	80021b4 <_malloc_r>
 8002d06:	b948      	cbnz	r0, 8002d1c <__smakebuf_r+0x44>
 8002d08:	f9b4 300c 	ldrsh.w	r3, [r4, #12]
 8002d0c:	059a      	lsls	r2, r3, #22
 8002d0e:	d4ef      	bmi.n	8002cf0 <__smakebuf_r+0x18>
 8002d10:	f023 0303 	bic.w	r3, r3, #3
 8002d14:	f043 0302 	orr.w	r3, r3, #2
 8002d18:	81a3      	strh	r3, [r4, #12]
 8002d1a:	e7e3      	b.n	8002ce4 <__smakebuf_r+0xc>
 8002d1c:	4b0d      	ldr	r3, [pc, #52]	; (8002d54 <__smakebuf_r+0x7c>)
 8002d1e:	62b3      	str	r3, [r6, #40]	; 0x28
 8002d20:	89a3      	ldrh	r3, [r4, #12]
 8002d22:	6020      	str	r0, [r4, #0]
 8002d24:	f043 0380 	orr.w	r3, r3, #128	; 0x80
 8002d28:	81a3      	strh	r3, [r4, #12]
 8002d2a:	9b00      	ldr	r3, [sp, #0]
 8002d2c:	6163      	str	r3, [r4, #20]
 8002d2e:	9b01      	ldr	r3, [sp, #4]
 8002d30:	6120      	str	r0, [r4, #16]
 8002d32:	b15b      	cbz	r3, 8002d4c <__smakebuf_r+0x74>
 8002d34:	f9b4 100e 	ldrsh.w	r1, [r4, #14]
 8002d38:	4630      	mov	r0, r6
 8002d3a:	f000 f889 	bl	8002e50 <_isatty_r>
 8002d3e:	b128      	cbz	r0, 8002d4c <__smakebuf_r+0x74>
 8002d40:	89a3      	ldrh	r3, [r4, #12]
 8002d42:	f023 0303 	bic.w	r3, r3, #3
 8002d46:	f043 0301 	orr.w	r3, r3, #1
 8002d4a:	81a3      	strh	r3, [r4, #12]
 8002d4c:	89a0      	ldrh	r0, [r4, #12]
 8002d4e:	4305      	orrs	r5, r0
 8002d50:	81a5      	strh	r5, [r4, #12]
 8002d52:	e7cd      	b.n	8002cf0 <__smakebuf_r+0x18>
 8002d54:	08001fcd 	.word	0x08001fcd

08002d58 <__malloc_lock>:
 8002d58:	4801      	ldr	r0, [pc, #4]	; (8002d60 <__malloc_lock+0x8>)
 8002d5a:	f7ff ba09 	b.w	8002170 <__retarget_lock_acquire_recursive>
 8002d5e:	bf00      	nop
 8002d60:	20000438 	.word	0x20000438

08002d64 <__malloc_unlock>:
 8002d64:	4801      	ldr	r0, [pc, #4]	; (8002d6c <__malloc_unlock+0x8>)
 8002d66:	f7ff ba04 	b.w	8002172 <__retarget_lock_release_recursive>
 8002d6a:	bf00      	nop
 8002d6c:	20000438 	.word	0x20000438

08002d70 <_free_r>:
 8002d70:	b537      	push	{r0, r1, r2, r4, r5, lr}
 8002d72:	2900      	cmp	r1, #0
 8002d74:	d044      	beq.n	8002e00 <_free_r+0x90>
 8002d76:	f851 3c04 	ldr.w	r3, [r1, #-4]
 8002d7a:	9001      	str	r0, [sp, #4]
 8002d7c:	2b00      	cmp	r3, #0
 8002d7e:	f1a1 0404 	sub.w	r4, r1, #4
 8002d82:	bfb8      	it	lt
 8002d84:	18e4      	addlt	r4, r4, r3
 8002d86:	f7ff ffe7 	bl	8002d58 <__malloc_lock>
 8002d8a:	4a1e      	ldr	r2, [pc, #120]	; (8002e04 <_free_r+0x94>)
 8002d8c:	9801      	ldr	r0, [sp, #4]
 8002d8e:	6813      	ldr	r3, [r2, #0]
 8002d90:	b933      	cbnz	r3, 8002da0 <_free_r+0x30>
 8002d92:	6063      	str	r3, [r4, #4]
 8002d94:	6014      	str	r4, [r2, #0]
 8002d96:	b003      	add	sp, #12
 8002d98:	e8bd 4030 	ldmia.w	sp!, {r4, r5, lr}
 8002d9c:	f7ff bfe2 	b.w	8002d64 <__malloc_unlock>
 8002da0:	42a3      	cmp	r3, r4
 8002da2:	d908      	bls.n	8002db6 <_free_r+0x46>
 8002da4:	6825      	ldr	r5, [r4, #0]
 8002da6:	1961      	adds	r1, r4, r5
 8002da8:	428b      	cmp	r3, r1
 8002daa:	bf01      	itttt	eq
 8002dac:	6819      	ldreq	r1, [r3, #0]
 8002dae:	685b      	ldreq	r3, [r3, #4]
 8002db0:	1949      	addeq	r1, r1, r5
 8002db2:	6021      	streq	r1, [r4, #0]
 8002db4:	e7ed      	b.n	8002d92 <_free_r+0x22>
 8002db6:	461a      	mov	r2, r3
 8002db8:	685b      	ldr	r3, [r3, #4]
 8002dba:	b10b      	cbz	r3, 8002dc0 <_free_r+0x50>
 8002dbc:	42a3      	cmp	r3, r4
 8002dbe:	d9fa      	bls.n	8002db6 <_free_r+0x46>
 8002dc0:	6811      	ldr	r1, [r2, #0]
 8002dc2:	1855      	adds	r5, r2, r1
 8002dc4:	42a5      	cmp	r5, r4
 8002dc6:	d10b      	bne.n	8002de0 <_free_r+0x70>
 8002dc8:	6824      	ldr	r4, [r4, #0]
 8002dca:	4421      	add	r1, r4
 8002dcc:	1854      	adds	r4, r2, r1
 8002dce:	42a3      	cmp	r3, r4
 8002dd0:	6011      	str	r1, [r2, #0]
 8002dd2:	d1e0      	bne.n	8002d96 <_free_r+0x26>
 8002dd4:	681c      	ldr	r4, [r3, #0]
 8002dd6:	685b      	ldr	r3, [r3, #4]
 8002dd8:	6053      	str	r3, [r2, #4]
 8002dda:	4421      	add	r1, r4
 8002ddc:	6011      	str	r1, [r2, #0]
 8002dde:	e7da      	b.n	8002d96 <_free_r+0x26>
 8002de0:	d902      	bls.n	8002de8 <_free_r+0x78>
 8002de2:	230c      	movs	r3, #12
 8002de4:	6003      	str	r3, [r0, #0]
 8002de6:	e7d6      	b.n	8002d96 <_free_r+0x26>
 8002de8:	6825      	ldr	r5, [r4, #0]
 8002dea:	1961      	adds	r1, r4, r5
 8002dec:	428b      	cmp	r3, r1
 8002dee:	bf04      	itt	eq
 8002df0:	6819      	ldreq	r1, [r3, #0]
 8002df2:	685b      	ldreq	r3, [r3, #4]
 8002df4:	6063      	str	r3, [r4, #4]
 8002df6:	bf04      	itt	eq
 8002df8:	1949      	addeq	r1, r1, r5
 8002dfa:	6021      	streq	r1, [r4, #0]
 8002dfc:	6054      	str	r4, [r2, #4]
 8002dfe:	e7ca      	b.n	8002d96 <_free_r+0x26>
 8002e00:	b003      	add	sp, #12
 8002e02:	bd30      	pop	{r4, r5, pc}
 8002e04:	2000043c 	.word	0x2000043c

08002e08 <_read_r>:
 8002e08:	b538      	push	{r3, r4, r5, lr}
 8002e0a:	4d07      	ldr	r5, [pc, #28]	; (8002e28 <_read_r+0x20>)
 8002e0c:	4604      	mov	r4, r0
 8002e0e:	4608      	mov	r0, r1
 8002e10:	4611      	mov	r1, r2
 8002e12:	2200      	movs	r2, #0
 8002e14:	602a      	str	r2, [r5, #0]
 8002e16:	461a      	mov	r2, r3
 8002e18:	f7fd fc3a 	bl	8000690 <_read>
 8002e1c:	1c43      	adds	r3, r0, #1
 8002e1e:	d102      	bne.n	8002e26 <_read_r+0x1e>
 8002e20:	682b      	ldr	r3, [r5, #0]
 8002e22:	b103      	cbz	r3, 8002e26 <_read_r+0x1e>
 8002e24:	6023      	str	r3, [r4, #0]
 8002e26:	bd38      	pop	{r3, r4, r5, pc}
 8002e28:	20000444 	.word	0x20000444

08002e2c <_fstat_r>:
 8002e2c:	b538      	push	{r3, r4, r5, lr}
 8002e2e:	4d07      	ldr	r5, [pc, #28]	; (8002e4c <_fstat_r+0x20>)
 8002e30:	2300      	movs	r3, #0
 8002e32:	4604      	mov	r4, r0
 8002e34:	4608      	mov	r0, r1
 8002e36:	4611      	mov	r1, r2
 8002e38:	602b      	str	r3, [r5, #0]
 8002e3a:	f7fd fc3a 	bl	80006b2 <_fstat>
 8002e3e:	1c43      	adds	r3, r0, #1
 8002e40:	d102      	bne.n	8002e48 <_fstat_r+0x1c>
 8002e42:	682b      	ldr	r3, [r5, #0]
 8002e44:	b103      	cbz	r3, 8002e48 <_fstat_r+0x1c>
 8002e46:	6023      	str	r3, [r4, #0]
 8002e48:	bd38      	pop	{r3, r4, r5, pc}
 8002e4a:	bf00      	nop
 8002e4c:	20000444 	.word	0x20000444

08002e50 <_isatty_r>:
 8002e50:	b538      	push	{r3, r4, r5, lr}
 8002e52:	4d06      	ldr	r5, [pc, #24]	; (8002e6c <_isatty_r+0x1c>)
 8002e54:	2300      	movs	r3, #0
 8002e56:	4604      	mov	r4, r0
 8002e58:	4608      	mov	r0, r1
 8002e5a:	602b      	str	r3, [r5, #0]
 8002e5c:	f7fd fc2e 	bl	80006bc <_isatty>
 8002e60:	1c43      	adds	r3, r0, #1
 8002e62:	d102      	bne.n	8002e6a <_isatty_r+0x1a>
 8002e64:	682b      	ldr	r3, [r5, #0]
 8002e66:	b103      	cbz	r3, 8002e6a <_isatty_r+0x1a>
 8002e68:	6023      	str	r3, [r4, #0]
 8002e6a:	bd38      	pop	{r3, r4, r5, pc}
 8002e6c:	20000444 	.word	0x20000444

08002e70 <_init>:
 8002e70:	b5f8      	push	{r3, r4, r5, r6, r7, lr}
 8002e72:	bf00      	nop
 8002e74:	bcf8      	pop	{r3, r4, r5, r6, r7}
 8002e76:	bc08      	pop	{r3}
 8002e78:	469e      	mov	lr, r3
 8002e7a:	4770      	bx	lr

08002e7c <_fini>:
 8002e7c:	b5f8      	push	{r3, r4, r5, r6, r7, lr}
 8002e7e:	bf00      	nop
 8002e80:	bcf8      	pop	{r3, r4, r5, r6, r7}
 8002e82:	bc08      	pop	{r3}
 8002e84:	469e      	mov	lr, r3
 8002e86:	4770      	bx	lr
